	.file	"main.cpp"
	.text
	.section	.text$_ZNKSt5ctypeIcE8do_widenEc,"x"
	.linkonce discard
	.align 2
	.p2align 4
	.globl	_ZNKSt5ctypeIcE8do_widenEc
	.def	_ZNKSt5ctypeIcE8do_widenEc;	.scl	2;	.type	32;	.endef
	.seh_proc	_ZNKSt5ctypeIcE8do_widenEc
_ZNKSt5ctypeIcE8do_widenEc:
.LFB1587:
	.seh_endprologue
	movl	%edx, %eax
	ret
	.seh_endproc
	.section	.text$_ZNSt17_Function_handlerIFyyEPFyjEE9_M_invokeERKSt9_Any_dataOy,"x"
	.linkonce discard
	.p2align 4
	.globl	_ZNSt17_Function_handlerIFyyEPFyjEE9_M_invokeERKSt9_Any_dataOy
	.def	_ZNSt17_Function_handlerIFyyEPFyjEE9_M_invokeERKSt9_Any_dataOy;	.scl	2;	.type	32;	.endef
	.seh_proc	_ZNSt17_Function_handlerIFyyEPFyjEE9_M_invokeERKSt9_Any_dataOy
_ZNSt17_Function_handlerIFyyEPFyjEE9_M_invokeERKSt9_Any_dataOy:
.LFB4627:
	.seh_endprologue
	movq	(%rcx), %rax
	movl	(%rdx), %ecx
	rex.W jmp	*%rax
	.seh_endproc
	.section	.text$_ZNSt17_Function_handlerIFyyEPS0_E9_M_invokeERKSt9_Any_dataOy,"x"
	.linkonce discard
	.p2align 4
	.globl	_ZNSt17_Function_handlerIFyyEPS0_E9_M_invokeERKSt9_Any_dataOy
	.def	_ZNSt17_Function_handlerIFyyEPS0_E9_M_invokeERKSt9_Any_dataOy;	.scl	2;	.type	32;	.endef
	.seh_proc	_ZNSt17_Function_handlerIFyyEPS0_E9_M_invokeERKSt9_Any_dataOy
_ZNSt17_Function_handlerIFyyEPS0_E9_M_invokeERKSt9_Any_dataOy:
.LFB4633:
	.seh_endprologue
	movq	%rcx, %rax
	movq	(%rdx), %rcx
	rex.W jmp	*(%rax)
	.seh_endproc
	.section	.text$_ZNSt17_Function_handlerIFyyESt5_BindIFPFyjyyESt12_PlaceholderILi1EEiiEEE9_M_invokeERKSt9_Any_dataOy,"x"
	.linkonce discard
	.p2align 4
	.globl	_ZNSt17_Function_handlerIFyyESt5_BindIFPFyjyyESt12_PlaceholderILi1EEiiEEE9_M_invokeERKSt9_Any_dataOy
	.def	_ZNSt17_Function_handlerIFyyESt5_BindIFPFyjyyESt12_PlaceholderILi1EEiiEEE9_M_invokeERKSt9_Any_dataOy;	.scl	2;	.type	32;	.endef
	.seh_proc	_ZNSt17_Function_handlerIFyyESt5_BindIFPFyjyyESt12_PlaceholderILi1EEiiEEE9_M_invokeERKSt9_Any_dataOy
_ZNSt17_Function_handlerIFyyESt5_BindIFPFyjyyESt12_PlaceholderILi1EEiiEEE9_M_invokeERKSt9_Any_dataOy:
.LFB4826:
	.seh_endprologue
	movq	%rcx, %rax
	movq	%rdx, %rcx
	movq	(%rax), %rax
	movl	(%rcx), %ecx
	movslq	12(%rax), %rdx
	movq	(%rax), %r9
	movslq	8(%rax), %r8
	rex.W jmp	*%r9
	.seh_endproc
	.section	.text$_ZNSt17_Function_handlerIFyyESt5_BindIFPFyyyESt12_PlaceholderILi1EEiEEE9_M_invokeERKSt9_Any_dataOy,"x"
	.linkonce discard
	.p2align 4
	.globl	_ZNSt17_Function_handlerIFyyESt5_BindIFPFyyyESt12_PlaceholderILi1EEiEEE9_M_invokeERKSt9_Any_dataOy
	.def	_ZNSt17_Function_handlerIFyyESt5_BindIFPFyyyESt12_PlaceholderILi1EEiEEE9_M_invokeERKSt9_Any_dataOy;	.scl	2;	.type	32;	.endef
	.seh_proc	_ZNSt17_Function_handlerIFyyESt5_BindIFPFyyyESt12_PlaceholderILi1EEiEEE9_M_invokeERKSt9_Any_dataOy
_ZNSt17_Function_handlerIFyyESt5_BindIFPFyyyESt12_PlaceholderILi1EEiEEE9_M_invokeERKSt9_Any_dataOy:
.LFB4832:
	.seh_endprologue
	movq	%rcx, %rax
	movq	%rdx, %rcx
	movq	(%rax), %rax
	movq	(%rcx), %rcx
	movslq	8(%rax), %rdx
	rex.W jmp	*(%rax)
	.seh_endproc
	.text
	.p2align 4
	.def	__tcf_0;	.scl	3;	.type	32;	.endef
	.seh_proc	__tcf_0
__tcf_0:
.LFB5400:
	.seh_endprologue
	leaq	_ZStL8__ioinit(%rip), %rcx
	jmp	_ZNSt8ios_base4InitD1Ev
	.seh_endproc
	.section	.text$_ZNSt17_Function_handlerIFNSt7__cxx1112basic_stringIcSt11char_traitsIcESaIcEEES5_ESt5_BindIFPFS5_S5_S5_ESt12_PlaceholderILi1EEPKcEEE10_M_managerERSt9_Any_dataRKSH_St18_Manager_operation,"x"
	.linkonce discard
	.p2align 4
	.globl	_ZNSt17_Function_handlerIFNSt7__cxx1112basic_stringIcSt11char_traitsIcESaIcEEES5_ESt5_BindIFPFS5_S5_S5_ESt12_PlaceholderILi1EEPKcEEE10_M_managerERSt9_Any_dataRKSH_St18_Manager_operation
	.def	_ZNSt17_Function_handlerIFNSt7__cxx1112basic_stringIcSt11char_traitsIcESaIcEEES5_ESt5_BindIFPFS5_S5_S5_ESt12_PlaceholderILi1EEPKcEEE10_M_managerERSt9_Any_dataRKSH_St18_Manager_operation;	.scl	2;	.type	32;	.endef
	.seh_proc	_ZNSt17_Function_handlerIFNSt7__cxx1112basic_stringIcSt11char_traitsIcESaIcEEES5_ESt5_BindIFPFS5_S5_S5_ESt12_PlaceholderILi1EEPKcEEE10_M_managerERSt9_Any_dataRKSH_St18_Manager_operation
_ZNSt17_Function_handlerIFNSt7__cxx1112basic_stringIcSt11char_traitsIcESaIcEEES5_ESt5_BindIFPFS5_S5_S5_ESt12_PlaceholderILi1EEPKcEEE10_M_managerERSt9_Any_dataRKSH_St18_Manager_operation:
.LFB4877:
	pushq	%rsi
	.seh_pushreg	%rsi
	pushq	%rbx
	.seh_pushreg	%rbx
	subq	$40, %rsp
	.seh_stackalloc	40
	.seh_endprologue
	movq	%rcx, %rbx
	testl	%r8d, %r8d
	je	.L9
	cmpl	$1, %r8d
	je	.L10
	cmpl	$2, %r8d
	je	.L13
	cmpl	$3, %r8d
	jne	.L12
	movq	(%rcx), %rcx
	testq	%rcx, %rcx
	je	.L12
	movl	$16, %edx
	call	_ZdlPvy
.L12:
	xorl	%eax, %eax
	addq	$40, %rsp
	popq	%rbx
	popq	%rsi
	ret
	.p2align 4,,10
	.p2align 3
.L9:
	leaq	_ZTISt5_BindIFPFNSt7__cxx1112basic_stringIcSt11char_traitsIcESaIcEEES5_S5_ESt12_PlaceholderILi1EEPKcEE(%rip), %rax
	movq	%rax, (%rcx)
	xorl	%eax, %eax
	addq	$40, %rsp
	popq	%rbx
	popq	%rsi
	ret
	.p2align 4,,10
	.p2align 3
.L10:
	movq	(%rdx), %rax
	movq	%rax, (%rcx)
	xorl	%eax, %eax
	addq	$40, %rsp
	popq	%rbx
	popq	%rsi
	ret
	.p2align 4,,10
	.p2align 3
.L13:
	movq	(%rdx), %rsi
	movl	$16, %ecx
	call	_Znwy
	movdqu	(%rsi), %xmm0
	movups	%xmm0, (%rax)
	movq	%rax, (%rbx)
	jmp	.L12
	.seh_endproc
	.section	.text$_ZNSt17_Function_handlerIFyyESt5_BindIFPFyyyESt12_PlaceholderILi1EEiEEE10_M_managerERSt9_Any_dataRKS9_St18_Manager_operation,"x"
	.linkonce discard
	.p2align 4
	.globl	_ZNSt17_Function_handlerIFyyESt5_BindIFPFyyyESt12_PlaceholderILi1EEiEEE10_M_managerERSt9_Any_dataRKS9_St18_Manager_operation
	.def	_ZNSt17_Function_handlerIFyyESt5_BindIFPFyyyESt12_PlaceholderILi1EEiEEE10_M_managerERSt9_Any_dataRKS9_St18_Manager_operation;	.scl	2;	.type	32;	.endef
	.seh_proc	_ZNSt17_Function_handlerIFyyESt5_BindIFPFyyyESt12_PlaceholderILi1EEiEEE10_M_managerERSt9_Any_dataRKS9_St18_Manager_operation
_ZNSt17_Function_handlerIFyyESt5_BindIFPFyyyESt12_PlaceholderILi1EEiEEE10_M_managerERSt9_Any_dataRKS9_St18_Manager_operation:
.LFB4835:
	pushq	%rsi
	.seh_pushreg	%rsi
	pushq	%rbx
	.seh_pushreg	%rbx
	subq	$40, %rsp
	.seh_stackalloc	40
	.seh_endprologue
	movq	%rcx, %rbx
	testl	%r8d, %r8d
	je	.L20
	cmpl	$1, %r8d
	je	.L21
	cmpl	$2, %r8d
	je	.L24
	cmpl	$3, %r8d
	jne	.L23
	movq	(%rcx), %rcx
	testq	%rcx, %rcx
	je	.L23
	movl	$16, %edx
	call	_ZdlPvy
.L23:
	xorl	%eax, %eax
	addq	$40, %rsp
	popq	%rbx
	popq	%rsi
	ret
	.p2align 4,,10
	.p2align 3
.L20:
	leaq	_ZTISt5_BindIFPFyyyESt12_PlaceholderILi1EEiEE(%rip), %rax
	movq	%rax, (%rcx)
	xorl	%eax, %eax
	addq	$40, %rsp
	popq	%rbx
	popq	%rsi
	ret
	.p2align 4,,10
	.p2align 3
.L21:
	movq	(%rdx), %rax
	movq	%rax, (%rcx)
	xorl	%eax, %eax
	addq	$40, %rsp
	popq	%rbx
	popq	%rsi
	ret
	.p2align 4,,10
	.p2align 3
.L24:
	movq	(%rdx), %rsi
	movl	$16, %ecx
	call	_Znwy
	movdqu	(%rsi), %xmm0
	movups	%xmm0, (%rax)
	movq	%rax, (%rbx)
	jmp	.L23
	.seh_endproc
	.section	.text$_ZNSt17_Function_handlerIFyyESt5_BindIFPFyjyyESt12_PlaceholderILi1EEiiEEE10_M_managerERSt9_Any_dataRKS9_St18_Manager_operation,"x"
	.linkonce discard
	.p2align 4
	.globl	_ZNSt17_Function_handlerIFyyESt5_BindIFPFyjyyESt12_PlaceholderILi1EEiiEEE10_M_managerERSt9_Any_dataRKS9_St18_Manager_operation
	.def	_ZNSt17_Function_handlerIFyyESt5_BindIFPFyjyyESt12_PlaceholderILi1EEiiEEE10_M_managerERSt9_Any_dataRKS9_St18_Manager_operation;	.scl	2;	.type	32;	.endef
	.seh_proc	_ZNSt17_Function_handlerIFyyESt5_BindIFPFyjyyESt12_PlaceholderILi1EEiiEEE10_M_managerERSt9_Any_dataRKS9_St18_Manager_operation
_ZNSt17_Function_handlerIFyyESt5_BindIFPFyjyyESt12_PlaceholderILi1EEiiEEE10_M_managerERSt9_Any_dataRKS9_St18_Manager_operation:
.LFB4829:
	pushq	%rsi
	.seh_pushreg	%rsi
	pushq	%rbx
	.seh_pushreg	%rbx
	subq	$40, %rsp
	.seh_stackalloc	40
	.seh_endprologue
	movq	%rcx, %rbx
	testl	%r8d, %r8d
	je	.L31
	cmpl	$1, %r8d
	je	.L32
	cmpl	$2, %r8d
	je	.L35
	cmpl	$3, %r8d
	jne	.L34
	movq	(%rcx), %rcx
	testq	%rcx, %rcx
	je	.L34
	movl	$16, %edx
	call	_ZdlPvy
.L34:
	xorl	%eax, %eax
	addq	$40, %rsp
	popq	%rbx
	popq	%rsi
	ret
	.p2align 4,,10
	.p2align 3
.L31:
	leaq	_ZTISt5_BindIFPFyjyyESt12_PlaceholderILi1EEiiEE(%rip), %rax
	movq	%rax, (%rcx)
	xorl	%eax, %eax
	addq	$40, %rsp
	popq	%rbx
	popq	%rsi
	ret
	.p2align 4,,10
	.p2align 3
.L32:
	movq	(%rdx), %rax
	movq	%rax, (%rcx)
	xorl	%eax, %eax
	addq	$40, %rsp
	popq	%rbx
	popq	%rsi
	ret
	.p2align 4,,10
	.p2align 3
.L35:
	movq	(%rdx), %rsi
	movl	$16, %ecx
	call	_Znwy
	movdqu	(%rsi), %xmm0
	movups	%xmm0, (%rax)
	movq	%rax, (%rbx)
	jmp	.L34
	.seh_endproc
	.section	.text$_ZNSt17_Function_handlerIFNSt7__cxx1112basic_stringIcSt11char_traitsIcESaIcEEES5_EPS6_E10_M_managerERSt9_Any_dataRKS9_St18_Manager_operation,"x"
	.linkonce discard
	.p2align 4
	.globl	_ZNSt17_Function_handlerIFNSt7__cxx1112basic_stringIcSt11char_traitsIcESaIcEEES5_EPS6_E10_M_managerERSt9_Any_dataRKS9_St18_Manager_operation
	.def	_ZNSt17_Function_handlerIFNSt7__cxx1112basic_stringIcSt11char_traitsIcESaIcEEES5_EPS6_E10_M_managerERSt9_Any_dataRKS9_St18_Manager_operation;	.scl	2;	.type	32;	.endef
	.seh_proc	_ZNSt17_Function_handlerIFNSt7__cxx1112basic_stringIcSt11char_traitsIcESaIcEEES5_EPS6_E10_M_managerERSt9_Any_dataRKS9_St18_Manager_operation
_ZNSt17_Function_handlerIFNSt7__cxx1112basic_stringIcSt11char_traitsIcESaIcEEES5_EPS6_E10_M_managerERSt9_Any_dataRKS9_St18_Manager_operation:
.LFB4679:
	.seh_endprologue
	testl	%r8d, %r8d
	je	.L42
	cmpl	$1, %r8d
	je	.L43
	cmpl	$2, %r8d
	je	.L47
.L45:
	xorl	%eax, %eax
	ret
	.p2align 4,,10
	.p2align 3
.L42:
	leaq	_ZTIPFNSt7__cxx1112basic_stringIcSt11char_traitsIcESaIcEEES4_E(%rip), %rax
	movq	%rax, (%rcx)
	xorl	%eax, %eax
	ret
	.p2align 4,,10
	.p2align 3
.L43:
	xorl	%eax, %eax
	movq	%rdx, (%rcx)
	ret
	.p2align 4,,10
	.p2align 3
.L47:
	movq	(%rdx), %rax
	movq	%rax, (%rcx)
	jmp	.L45
	.seh_endproc
	.section	.text$_ZNSt17_Function_handlerIFyyEPS0_E10_M_managerERSt9_Any_dataRKS3_St18_Manager_operation,"x"
	.linkonce discard
	.p2align 4
	.globl	_ZNSt17_Function_handlerIFyyEPS0_E10_M_managerERSt9_Any_dataRKS3_St18_Manager_operation
	.def	_ZNSt17_Function_handlerIFyyEPS0_E10_M_managerERSt9_Any_dataRKS3_St18_Manager_operation;	.scl	2;	.type	32;	.endef
	.seh_proc	_ZNSt17_Function_handlerIFyyEPS0_E10_M_managerERSt9_Any_dataRKS3_St18_Manager_operation
_ZNSt17_Function_handlerIFyyEPS0_E10_M_managerERSt9_Any_dataRKS3_St18_Manager_operation:
.LFB4636:
	.seh_endprologue
	testl	%r8d, %r8d
	je	.L49
	cmpl	$1, %r8d
	je	.L50
	cmpl	$2, %r8d
	je	.L54
.L52:
	xorl	%eax, %eax
	ret
	.p2align 4,,10
	.p2align 3
.L49:
	leaq	_ZTIPFyyE(%rip), %rax
	movq	%rax, (%rcx)
	xorl	%eax, %eax
	ret
	.p2align 4,,10
	.p2align 3
.L50:
	xorl	%eax, %eax
	movq	%rdx, (%rcx)
	ret
	.p2align 4,,10
	.p2align 3
.L54:
	movq	(%rdx), %rax
	movq	%rax, (%rcx)
	jmp	.L52
	.seh_endproc
	.section	.text$_ZNSt17_Function_handlerIFyyEPFyjEE10_M_managerERSt9_Any_dataRKS4_St18_Manager_operation,"x"
	.linkonce discard
	.p2align 4
	.globl	_ZNSt17_Function_handlerIFyyEPFyjEE10_M_managerERSt9_Any_dataRKS4_St18_Manager_operation
	.def	_ZNSt17_Function_handlerIFyyEPFyjEE10_M_managerERSt9_Any_dataRKS4_St18_Manager_operation;	.scl	2;	.type	32;	.endef
	.seh_proc	_ZNSt17_Function_handlerIFyyEPFyjEE10_M_managerERSt9_Any_dataRKS4_St18_Manager_operation
_ZNSt17_Function_handlerIFyyEPFyjEE10_M_managerERSt9_Any_dataRKS4_St18_Manager_operation:
.LFB4630:
	.seh_endprologue
	testl	%r8d, %r8d
	je	.L56
	cmpl	$1, %r8d
	je	.L57
	cmpl	$2, %r8d
	je	.L61
.L59:
	xorl	%eax, %eax
	ret
	.p2align 4,,10
	.p2align 3
.L56:
	leaq	_ZTIPFyjE(%rip), %rax
	movq	%rax, (%rcx)
	xorl	%eax, %eax
	ret
	.p2align 4,,10
	.p2align 3
.L57:
	xorl	%eax, %eax
	movq	%rdx, (%rcx)
	ret
	.p2align 4,,10
	.p2align 3
.L61:
	movq	(%rdx), %rax
	movq	%rax, (%rcx)
	jmp	.L59
	.seh_endproc
	.text
	.align 2
	.p2align 4
	.def	_ZNSt7__cxx1112basic_stringIcSt11char_traitsIcESaIcEE12_M_constructIPKcEEvT_S8_St20forward_iterator_tag.isra.0;	.scl	3;	.type	32;	.endef
	.seh_proc	_ZNSt7__cxx1112basic_stringIcSt11char_traitsIcESaIcEE12_M_constructIPKcEEvT_S8_St20forward_iterator_tag.isra.0
_ZNSt7__cxx1112basic_stringIcSt11char_traitsIcESaIcEE12_M_constructIPKcEEvT_S8_St20forward_iterator_tag.isra.0:
.LFB5418:
	pushq	%rdi
	.seh_pushreg	%rdi
	pushq	%rsi
	.seh_pushreg	%rsi
	pushq	%rbx
	.seh_pushreg	%rbx
	subq	$48, %rsp
	.seh_stackalloc	48
	.seh_endprologue
	movq	%r8, %rbx
	movq	%rcx, %rsi
	movq	%rdx, %rdi
	subq	%rdx, %rbx
	movq	%rbx, 40(%rsp)
	cmpq	$15, %rbx
	ja	.L71
	movq	(%rcx), %rcx
	cmpq	$1, %rbx
	jne	.L65
	movzbl	(%rdx), %eax
	movb	%al, (%rcx)
	movq	40(%rsp), %rbx
	movq	(%rsi), %rcx
	movq	%rbx, 8(%rsi)
	movb	$0, (%rcx,%rbx)
	addq	$48, %rsp
	popq	%rbx
	popq	%rsi
	popq	%rdi
	ret
	.p2align 4,,10
	.p2align 3
.L65:
	testq	%rbx, %rbx
	jne	.L64
	movq	%rbx, 8(%rsi)
	movb	$0, (%rcx,%rbx)
	addq	$48, %rsp
	popq	%rbx
	popq	%rsi
	popq	%rdi
	ret
	.p2align 4,,10
	.p2align 3
.L71:
	leaq	40(%rsp), %rdx
	xorl	%r8d, %r8d
	call	_ZNSt7__cxx1112basic_stringIcSt11char_traitsIcESaIcEE9_M_createERyy
	movq	%rax, (%rsi)
	movq	%rax, %rcx
	movq	40(%rsp), %rax
	movq	%rax, 16(%rsi)
.L64:
	movq	%rbx, %r8
	movq	%rdi, %rdx
	call	memcpy
	movq	40(%rsp), %rbx
	movq	(%rsi), %rcx
	movq	%rbx, 8(%rsi)
	movb	$0, (%rcx,%rbx)
	addq	$48, %rsp
	popq	%rbx
	popq	%rsi
	popq	%rdi
	ret
	.seh_endproc
	.align 2
	.p2align 4
	.def	_ZNSt7__cxx1112basic_stringIcSt11char_traitsIcESaIcEE12_M_constructIPcEEvT_S7_St20forward_iterator_tag.isra.0;	.scl	3;	.type	32;	.endef
	.seh_proc	_ZNSt7__cxx1112basic_stringIcSt11char_traitsIcESaIcEE12_M_constructIPcEEvT_S7_St20forward_iterator_tag.isra.0
_ZNSt7__cxx1112basic_stringIcSt11char_traitsIcESaIcEE12_M_constructIPcEEvT_S7_St20forward_iterator_tag.isra.0:
.LFB5420:
	pushq	%rdi
	.seh_pushreg	%rdi
	pushq	%rsi
	.seh_pushreg	%rsi
	pushq	%rbx
	.seh_pushreg	%rbx
	subq	$48, %rsp
	.seh_stackalloc	48
	.seh_endprologue
	movq	%r8, %rbx
	movq	%rcx, %rsi
	movq	%rdx, %rdi
	subq	%rdx, %rbx
	movq	%rbx, 40(%rsp)
	cmpq	$15, %rbx
	ja	.L81
	movq	(%rcx), %rcx
	cmpq	$1, %rbx
	jne	.L75
	movzbl	(%rdx), %eax
	movb	%al, (%rcx)
	movq	40(%rsp), %rbx
	movq	(%rsi), %rcx
	movq	%rbx, 8(%rsi)
	movb	$0, (%rcx,%rbx)
	addq	$48, %rsp
	popq	%rbx
	popq	%rsi
	popq	%rdi
	ret
	.p2align 4,,10
	.p2align 3
.L75:
	testq	%rbx, %rbx
	jne	.L74
	movq	%rbx, 8(%rsi)
	movb	$0, (%rcx,%rbx)
	addq	$48, %rsp
	popq	%rbx
	popq	%rsi
	popq	%rdi
	ret
	.p2align 4,,10
	.p2align 3
.L81:
	leaq	40(%rsp), %rdx
	xorl	%r8d, %r8d
	call	_ZNSt7__cxx1112basic_stringIcSt11char_traitsIcESaIcEE9_M_createERyy
	movq	%rax, (%rsi)
	movq	%rax, %rcx
	movq	40(%rsp), %rax
	movq	%rax, 16(%rsi)
.L74:
	movq	%rbx, %r8
	movq	%rdi, %rdx
	call	memcpy
	movq	40(%rsp), %rbx
	movq	(%rsi), %rcx
	movq	%rbx, 8(%rsi)
	movb	$0, (%rcx,%rbx)
	addq	$48, %rsp
	popq	%rbx
	popq	%rsi
	popq	%rdi
	ret
	.seh_endproc
	.section	.text$_ZNSt17_Function_handlerIFNSt7__cxx1112basic_stringIcSt11char_traitsIcESaIcEEES5_EPS6_E9_M_invokeERKSt9_Any_dataOS5_,"x"
	.linkonce discard
	.p2align 4
	.globl	_ZNSt17_Function_handlerIFNSt7__cxx1112basic_stringIcSt11char_traitsIcESaIcEEES5_EPS6_E9_M_invokeERKSt9_Any_dataOS5_
	.def	_ZNSt17_Function_handlerIFNSt7__cxx1112basic_stringIcSt11char_traitsIcESaIcEEES5_EPS6_E9_M_invokeERKSt9_Any_dataOS5_;	.scl	2;	.type	32;	.endef
	.seh_proc	_ZNSt17_Function_handlerIFNSt7__cxx1112basic_stringIcSt11char_traitsIcESaIcEEES5_EPS6_E9_M_invokeERKSt9_Any_dataOS5_
_ZNSt17_Function_handlerIFNSt7__cxx1112basic_stringIcSt11char_traitsIcESaIcEEES5_EPS6_E9_M_invokeERKSt9_Any_dataOS5_:
.LFB4675:
	pushq	%rbp
	.seh_pushreg	%rbp
	pushq	%rdi
	.seh_pushreg	%rdi
	pushq	%rsi
	.seh_pushreg	%rsi
	pushq	%rbx
	.seh_pushreg	%rbx
	subq	$72, %rsp
	.seh_stackalloc	72
	.seh_endprologue
	movq	(%rdx), %r9
	movq	(%r8), %rdx
	leaq	48(%rsp), %rdi
	leaq	16(%r8), %rax
	movq	%rcx, %rbx
	movq	8(%r8), %rcx
	movq	%rdi, 32(%rsp)
	cmpq	%rax, %rdx
	je	.L104
	movq	%rdx, 32(%rsp)
	movq	16(%r8), %rdx
	movq	%rdx, 48(%rsp)
.L90:
	leaq	32(%rsp), %rsi
	movq	%rcx, 40(%rsp)
	movq	%rbx, %rcx
	movq	%rax, (%r8)
	movq	%rsi, %rdx
	movq	$0, 8(%r8)
	movb	$0, 16(%r8)
.LEHB0:
	call	*%r9
.LEHE0:
	movq	32(%rsp), %rcx
	cmpq	%rdi, %rcx
	je	.L82
	movq	48(%rsp), %rax
	leaq	1(%rax), %rdx
	call	_ZdlPvy
.L82:
	movq	%rbx, %rax
	addq	$72, %rsp
	popq	%rbx
	popq	%rsi
	popq	%rdi
	popq	%rbp
	ret
	.p2align 4,,10
	.p2align 3
.L104:
	leaq	1(%rcx), %r10
	movq	%rdi, %rsi
	movq	%rax, %rdx
	cmpl	$8, %r10d
	jnb	.L105
.L84:
	xorl	%r11d, %r11d
	testb	$4, %r10b
	je	.L87
	movl	(%rdx), %r11d
	movl	%r11d, (%rsi)
	movl	$4, %r11d
.L87:
	testb	$2, %r10b
	je	.L88
	movzwl	(%rdx,%r11), %ebp
	movw	%bp, (%rsi,%r11)
	addq	$2, %r11
.L88:
	andl	$1, %r10d
	je	.L90
	movzbl	(%rdx,%r11), %edx
	movb	%dl, (%rsi,%r11)
	jmp	.L90
	.p2align 4,,10
	.p2align 3
.L105:
	movl	%r10d, %ebp
	xorl	%edx, %edx
	andl	$-8, %ebp
.L85:
	movl	%edx, %r11d
	addl	$8, %edx
	movq	(%rax,%r11), %rsi
	movq	%rsi, (%rdi,%r11)
	cmpl	%ebp, %edx
	jb	.L85
	leaq	(%rdi,%rdx), %rsi
	addq	%rax, %rdx
	jmp	.L84
.L93:
	movq	%rax, %rbx
	movq	%rsi, %rcx
	call	_ZNSt7__cxx1112basic_stringIcSt11char_traitsIcESaIcEE10_M_disposeEv
	movq	%rbx, %rcx
.LEHB1:
	call	_Unwind_Resume
	nop
.LEHE1:
	.def	__gxx_personality_seh0;	.scl	2;	.type	32;	.endef
	.seh_handler	__gxx_personality_seh0, @unwind, @except
	.seh_handlerdata
.LLSDA4675:
	.byte	0xff
	.byte	0xff
	.byte	0x1
	.uleb128 .LLSDACSE4675-.LLSDACSB4675
.LLSDACSB4675:
	.uleb128 .LEHB0-.LFB4675
	.uleb128 .LEHE0-.LEHB0
	.uleb128 .L93-.LFB4675
	.uleb128 0
	.uleb128 .LEHB1-.LFB4675
	.uleb128 .LEHE1-.LEHB1
	.uleb128 0
	.uleb128 0
.LLSDACSE4675:
	.section	.text$_ZNSt17_Function_handlerIFNSt7__cxx1112basic_stringIcSt11char_traitsIcESaIcEEES5_EPS6_E9_M_invokeERKSt9_Any_dataOS5_,"x"
	.linkonce discard
	.seh_endproc
	.text
	.align 2
	.p2align 4
	.def	_ZNSt8_Rb_treeINSt7__cxx1112basic_stringIcSt11char_traitsIcESaIcEEESt4pairIKS5_St8functionIFyyEEESt10_Select1stISB_ESt4lessIS5_ESaISB_EE8_M_eraseEPSt13_Rb_tree_nodeISB_E.isra.0;	.scl	3;	.type	32;	.endef
	.seh_proc	_ZNSt8_Rb_treeINSt7__cxx1112basic_stringIcSt11char_traitsIcESaIcEEESt4pairIKS5_St8functionIFyyEEESt10_Select1stISB_ESt4lessIS5_ESaISB_EE8_M_eraseEPSt13_Rb_tree_nodeISB_E.isra.0
_ZNSt8_Rb_treeINSt7__cxx1112basic_stringIcSt11char_traitsIcESaIcEEESt4pairIKS5_St8functionIFyyEEESt10_Select1stISB_ESt4lessIS5_ESaISB_EE8_M_eraseEPSt13_Rb_tree_nodeISB_E.isra.0:
.LFB5423:
	pushq	%rsi
	.seh_pushreg	%rsi
	pushq	%rbx
	.seh_pushreg	%rbx
	subq	$40, %rsp
	.seh_stackalloc	40
	.seh_endprologue
	movq	%rcx, %rsi
	testq	%rcx, %rcx
	je	.L106
.L110:
	movq	24(%rsi), %rcx
	movq	%rsi, %rbx
	call	_ZNSt8_Rb_treeINSt7__cxx1112basic_stringIcSt11char_traitsIcESaIcEEESt4pairIKS5_St8functionIFyyEEESt10_Select1stISB_ESt4lessIS5_ESaISB_EE8_M_eraseEPSt13_Rb_tree_nodeISB_E.isra.0
	movq	80(%rbx), %rax
	movq	16(%rsi), %rsi
	leaq	64(%rbx), %rcx
	testq	%rax, %rax
	je	.L108
	movl	$3, %r8d
	movq	%rcx, %rdx
	call	*%rax
.L108:
	movq	32(%rbx), %rcx
	leaq	48(%rbx), %rax
	cmpq	%rax, %rcx
	je	.L109
	movq	48(%rbx), %rax
	leaq	1(%rax), %rdx
	call	_ZdlPvy
.L109:
	movl	$96, %edx
	movq	%rbx, %rcx
	call	_ZdlPvy
	testq	%rsi, %rsi
	jne	.L110
.L106:
	addq	$40, %rsp
	popq	%rbx
	popq	%rsi
	ret
	.seh_handler	__gxx_personality_seh0, @unwind, @except
	.seh_handlerdata
.LLSDA5423:
	.byte	0xff
	.byte	0xff
	.byte	0x1
	.uleb128 .LLSDACSE5423-.LLSDACSB5423
.LLSDACSB5423:
.LLSDACSE5423:
	.text
	.seh_endproc
	.align 2
	.p2align 4
	.def	_ZNSt8_Rb_treeINSt7__cxx1112basic_stringIcSt11char_traitsIcESaIcEEESt4pairIKS5_St8functionIFS5_S5_EEESt10_Select1stISB_ESt4lessIS5_ESaISB_EE8_M_eraseEPSt13_Rb_tree_nodeISB_E.isra.0;	.scl	3;	.type	32;	.endef
	.seh_proc	_ZNSt8_Rb_treeINSt7__cxx1112basic_stringIcSt11char_traitsIcESaIcEEESt4pairIKS5_St8functionIFS5_S5_EEESt10_Select1stISB_ESt4lessIS5_ESaISB_EE8_M_eraseEPSt13_Rb_tree_nodeISB_E.isra.0
_ZNSt8_Rb_treeINSt7__cxx1112basic_stringIcSt11char_traitsIcESaIcEEESt4pairIKS5_St8functionIFS5_S5_EEESt10_Select1stISB_ESt4lessIS5_ESaISB_EE8_M_eraseEPSt13_Rb_tree_nodeISB_E.isra.0:
.LFB5425:
	pushq	%rsi
	.seh_pushreg	%rsi
	pushq	%rbx
	.seh_pushreg	%rbx
	subq	$40, %rsp
	.seh_stackalloc	40
	.seh_endprologue
	movq	%rcx, %rsi
	testq	%rcx, %rcx
	je	.L118
.L122:
	movq	24(%rsi), %rcx
	movq	%rsi, %rbx
	call	_ZNSt8_Rb_treeINSt7__cxx1112basic_stringIcSt11char_traitsIcESaIcEEESt4pairIKS5_St8functionIFS5_S5_EEESt10_Select1stISB_ESt4lessIS5_ESaISB_EE8_M_eraseEPSt13_Rb_tree_nodeISB_E.isra.0
	movq	80(%rbx), %rax
	movq	16(%rsi), %rsi
	leaq	64(%rbx), %rcx
	testq	%rax, %rax
	je	.L120
	movl	$3, %r8d
	movq	%rcx, %rdx
	call	*%rax
.L120:
	movq	32(%rbx), %rcx
	leaq	48(%rbx), %rax
	cmpq	%rax, %rcx
	je	.L121
	movq	48(%rbx), %rax
	leaq	1(%rax), %rdx
	call	_ZdlPvy
.L121:
	movl	$96, %edx
	movq	%rbx, %rcx
	call	_ZdlPvy
	testq	%rsi, %rsi
	jne	.L122
.L118:
	addq	$40, %rsp
	popq	%rbx
	popq	%rsi
	ret
	.seh_handler	__gxx_personality_seh0, @unwind, @except
	.seh_handlerdata
.LLSDA5425:
	.byte	0xff
	.byte	0xff
	.byte	0x1
	.uleb128 .LLSDACSE5425-.LLSDACSB5425
.LLSDACSB5425:
.LLSDACSE5425:
	.text
	.seh_endproc
	.section .rdata,"dr"
	.align 8
.LC0:
	.ascii "basic_string: construction from null is not valid\0"
	.section	.text$_ZNSt17_Function_handlerIFNSt7__cxx1112basic_stringIcSt11char_traitsIcESaIcEEES5_ESt5_BindIFPFS5_S5_S5_ESt12_PlaceholderILi1EEPKcEEE9_M_invokeERKSt9_Any_dataOS5_,"x"
	.linkonce discard
	.p2align 4
	.globl	_ZNSt17_Function_handlerIFNSt7__cxx1112basic_stringIcSt11char_traitsIcESaIcEEES5_ESt5_BindIFPFS5_S5_S5_ESt12_PlaceholderILi1EEPKcEEE9_M_invokeERKSt9_Any_dataOS5_
	.def	_ZNSt17_Function_handlerIFNSt7__cxx1112basic_stringIcSt11char_traitsIcESaIcEEES5_ESt5_BindIFPFS5_S5_S5_ESt12_PlaceholderILi1EEPKcEEE9_M_invokeERKSt9_Any_dataOS5_;	.scl	2;	.type	32;	.endef
	.seh_proc	_ZNSt17_Function_handlerIFNSt7__cxx1112basic_stringIcSt11char_traitsIcESaIcEEES5_ESt5_BindIFPFS5_S5_S5_ESt12_PlaceholderILi1EEPKcEEE9_M_invokeERKSt9_Any_dataOS5_
_ZNSt17_Function_handlerIFNSt7__cxx1112basic_stringIcSt11char_traitsIcESaIcEEES5_ESt5_BindIFPFS5_S5_S5_ESt12_PlaceholderILi1EEPKcEEE9_M_invokeERKSt9_Any_dataOS5_:
.LFB4874:
	pushq	%r13
	.seh_pushreg	%r13
	pushq	%r12
	.seh_pushreg	%r12
	pushq	%rbp
	.seh_pushreg	%rbp
	pushq	%rdi
	.seh_pushreg	%rdi
	pushq	%rsi
	.seh_pushreg	%rsi
	pushq	%rbx
	.seh_pushreg	%rbx
	subq	$104, %rsp
	.seh_stackalloc	104
	.seh_endprologue
	movq	(%rdx), %rax
	movq	8(%rax), %rdi
	movq	(%rax), %r13
	leaq	48(%rsp), %r12
	movq	%rcx, %rsi
	leaq	32(%rsp), %rbp
	movq	%r8, %rbx
	movq	%r12, 32(%rsp)
	testq	%rdi, %rdi
	je	.L154
	movq	%rdi, %rcx
	call	strlen
	movq	%rdi, %rdx
	movq	%rbp, %rcx
	leaq	(%rdi,%rax), %r8
	leaq	80(%rsp), %rdi
.LEHB2:
	call	_ZNSt7__cxx1112basic_stringIcSt11char_traitsIcESaIcEE12_M_constructIPKcEEvT_S8_St20forward_iterator_tag.isra.0
.LEHE2:
	movq	(%rbx), %rdx
	leaq	16(%rbx), %rax
	movq	%rdi, 64(%rsp)
	cmpq	%rax, %rdx
	je	.L155
	movq	%rdx, 64(%rsp)
	movq	16(%rbx), %rdx
	movq	%rdx, 80(%rsp)
	movq	8(%rbx), %rdx
.L139:
	movq	%rax, (%rbx)
	movq	%rbp, %r8
	movq	%rsi, %rcx
	movq	$0, 8(%rbx)
	movb	$0, 16(%rbx)
	leaq	64(%rsp), %rbx
	movq	%rdx, 72(%rsp)
	movq	%rbx, %rdx
.LEHB3:
	call	*%r13
.LEHE3:
	movq	64(%rsp), %rcx
	cmpq	%rdi, %rcx
	je	.L140
	movq	80(%rsp), %rax
	leaq	1(%rax), %rdx
	call	_ZdlPvy
.L140:
	movq	32(%rsp), %rcx
	cmpq	%r12, %rcx
	je	.L130
	movq	48(%rsp), %rax
	leaq	1(%rax), %rdx
	call	_ZdlPvy
.L130:
	movq	%rsi, %rax
	addq	$104, %rsp
	popq	%rbx
	popq	%rsi
	popq	%rdi
	popq	%rbp
	popq	%r12
	popq	%r13
	ret
	.p2align 4,,10
	.p2align 3
.L155:
	movq	8(%rbx), %rdx
	movq	%rdi, %r10
	movq	%rax, %rcx
	leaq	1(%rdx), %r8
	cmpl	$8, %r8d
	jnb	.L156
.L133:
	xorl	%r9d, %r9d
	testb	$4, %r8b
	je	.L136
	movl	(%rcx), %r9d
	movl	%r9d, (%r10)
	movl	$4, %r9d
.L136:
	testb	$2, %r8b
	je	.L137
	movzwl	(%rcx,%r9), %r11d
	movw	%r11w, (%r10,%r9)
	addq	$2, %r9
.L137:
	andl	$1, %r8d
	je	.L139
	movzbl	(%rcx,%r9), %ecx
	movb	%cl, (%r10,%r9)
	jmp	.L139
	.p2align 4,,10
	.p2align 3
.L156:
	movl	%r8d, %r11d
	xorl	%ecx, %ecx
	andl	$-8, %r11d
.L134:
	movl	%ecx, %r9d
	addl	$8, %ecx
	movq	(%rax,%r9), %r10
	movq	%r10, (%rdi,%r9)
	cmpl	%r11d, %ecx
	jb	.L134
	leaq	(%rdi,%rcx), %r10
	addq	%rax, %rcx
	jmp	.L133
.L154:
	leaq	.LC0(%rip), %rcx
.LEHB4:
	call	_ZSt19__throw_logic_errorPKc
.L143:
	movq	%rbx, %rcx
	movq	%rax, %rsi
	call	_ZNSt7__cxx1112basic_stringIcSt11char_traitsIcESaIcEE10_M_disposeEv
	movq	%rbp, %rcx
	call	_ZNSt7__cxx1112basic_stringIcSt11char_traitsIcESaIcEE10_M_disposeEv
	movq	%rsi, %rcx
	call	_Unwind_Resume
	nop
.LEHE4:
	.seh_handler	__gxx_personality_seh0, @unwind, @except
	.seh_handlerdata
.LLSDA4874:
	.byte	0xff
	.byte	0xff
	.byte	0x1
	.uleb128 .LLSDACSE4874-.LLSDACSB4874
.LLSDACSB4874:
	.uleb128 .LEHB2-.LFB4874
	.uleb128 .LEHE2-.LEHB2
	.uleb128 0
	.uleb128 0
	.uleb128 .LEHB3-.LFB4874
	.uleb128 .LEHE3-.LEHB3
	.uleb128 .L143-.LFB4874
	.uleb128 0
	.uleb128 .LEHB4-.LFB4874
	.uleb128 .LEHE4-.LEHB4
	.uleb128 0
	.uleb128 0
.LLSDACSE4874:
	.section	.text$_ZNSt17_Function_handlerIFNSt7__cxx1112basic_stringIcSt11char_traitsIcESaIcEEES5_ESt5_BindIFPFS5_S5_S5_ESt12_PlaceholderILi1EEPKcEEE9_M_invokeERKSt9_Any_dataOS5_,"x"
	.linkonce discard
	.seh_endproc
	.section	.text$_ZNSt14_Function_baseD2Ev,"x"
	.linkonce discard
	.align 2
	.p2align 4
	.globl	_ZNSt14_Function_baseD2Ev
	.def	_ZNSt14_Function_baseD2Ev;	.scl	2;	.type	32;	.endef
	.seh_proc	_ZNSt14_Function_baseD2Ev
_ZNSt14_Function_baseD2Ev:
.LFB2421:
	subq	$40, %rsp
	.seh_stackalloc	40
	.seh_endprologue
	movq	16(%rcx), %rax
	testq	%rax, %rax
	je	.L157
	movl	$3, %r8d
	movq	%rcx, %rdx
	call	*%rax
	nop
.L157:
	addq	$40, %rsp
	ret
	.seh_handler	__gxx_personality_seh0, @unwind, @except
	.seh_handlerdata
.LLSDA2421:
	.byte	0xff
	.byte	0xff
	.byte	0x1
	.uleb128 .LLSDACSE2421-.LLSDACSB2421
.LLSDACSB2421:
.LLSDACSE2421:
	.section	.text$_ZNSt14_Function_baseD2Ev,"x"
	.linkonce discard
	.seh_endproc
	.section	.text$_ZNSt8_Rb_treeINSt7__cxx1112basic_stringIcSt11char_traitsIcESaIcEEESt4pairIKS5_St8functionIFyyEEESt10_Select1stISB_ESt4lessIS5_ESaISB_EE4findERS7_,"x"
	.linkonce discard
	.align 2
	.p2align 4
	.globl	_ZNSt8_Rb_treeINSt7__cxx1112basic_stringIcSt11char_traitsIcESaIcEEESt4pairIKS5_St8functionIFyyEEESt10_Select1stISB_ESt4lessIS5_ESaISB_EE4findERS7_
	.def	_ZNSt8_Rb_treeINSt7__cxx1112basic_stringIcSt11char_traitsIcESaIcEEESt4pairIKS5_St8functionIFyyEEESt10_Select1stISB_ESt4lessIS5_ESaISB_EE4findERS7_;	.scl	2;	.type	32;	.endef
	.seh_proc	_ZNSt8_Rb_treeINSt7__cxx1112basic_stringIcSt11char_traitsIcESaIcEEESt4pairIKS5_St8functionIFyyEEESt10_Select1stISB_ESt4lessIS5_ESaISB_EE4findERS7_
_ZNSt8_Rb_treeINSt7__cxx1112basic_stringIcSt11char_traitsIcESaIcEEESt4pairIKS5_St8functionIFyyEEESt10_Select1stISB_ESt4lessIS5_ESaISB_EE4findERS7_:
.LFB4701:
	pushq	%r15
	.seh_pushreg	%r15
	pushq	%r14
	.seh_pushreg	%r14
	pushq	%r13
	.seh_pushreg	%r13
	pushq	%r12
	.seh_pushreg	%r12
	pushq	%rbp
	.seh_pushreg	%rbp
	pushq	%rdi
	.seh_pushreg	%rdi
	pushq	%rsi
	.seh_pushreg	%rsi
	pushq	%rbx
	.seh_pushreg	%rbx
	subq	$40, %rsp
	.seh_stackalloc	40
	.seh_endprologue
	movq	16(%rcx), %rsi
	leaq	8(%rcx), %r14
	testq	%rsi, %rsi
	je	.L173
	movq	(%rdx), %rbp
	movq	8(%rdx), %r15
	movq	%r14, %rdi
	movl	$2147483648, %r12d
	movabsq	$-2147483649, %r13
	jmp	.L169
	.p2align 4,,10
	.p2align 3
.L167:
	movq	24(%rsi), %rsi
	testq	%rsi, %rsi
	je	.L181
.L169:
	movq	40(%rsi), %rbx
	movq	%r15, %r8
	cmpq	%r15, %rbx
	cmovbe	%rbx, %r8
	testq	%r8, %r8
	je	.L164
	movq	32(%rsi), %rcx
	movq	%rbp, %rdx
	call	memcmp
	testl	%eax, %eax
	jne	.L165
.L164:
	subq	%r15, %rbx
	cmpq	%r12, %rbx
	jge	.L166
	cmpq	%r13, %rbx
	jle	.L167
	movl	%ebx, %eax
.L165:
	testl	%eax, %eax
	js	.L167
.L166:
	movq	%rsi, %rdi
	movq	16(%rsi), %rsi
	testq	%rsi, %rsi
	jne	.L169
.L181:
	cmpq	%rdi, %r14
	je	.L163
	movq	40(%rdi), %rbx
	movq	%r15, %r8
	cmpq	%r15, %rbx
	cmovbe	%rbx, %r8
	testq	%r8, %r8
	je	.L170
	movq	32(%rdi), %rdx
	movq	%rbp, %rcx
	call	memcmp
	testl	%eax, %eax
	jne	.L171
.L170:
	subq	%rbx, %r15
	cmpq	$2147483647, %r15
	jg	.L163
	cmpq	$-2147483648, %r15
	jl	.L173
	movl	%r15d, %eax
.L171:
	testl	%eax, %eax
	cmovs	%r14, %rdi
.L163:
	movq	%rdi, %rax
	addq	$40, %rsp
	popq	%rbx
	popq	%rsi
	popq	%rdi
	popq	%rbp
	popq	%r12
	popq	%r13
	popq	%r14
	popq	%r15
	ret
	.p2align 4,,10
	.p2align 3
.L173:
	movq	%r14, %rdi
	jmp	.L163
	.seh_endproc
	.section	.text$_ZNSt8_Rb_treeINSt7__cxx1112basic_stringIcSt11char_traitsIcESaIcEEESt4pairIKS5_St8functionIFS5_S5_EEESt10_Select1stISB_ESt4lessIS5_ESaISB_EE4findERS7_,"x"
	.linkonce discard
	.align 2
	.p2align 4
	.globl	_ZNSt8_Rb_treeINSt7__cxx1112basic_stringIcSt11char_traitsIcESaIcEEESt4pairIKS5_St8functionIFS5_S5_EEESt10_Select1stISB_ESt4lessIS5_ESaISB_EE4findERS7_
	.def	_ZNSt8_Rb_treeINSt7__cxx1112basic_stringIcSt11char_traitsIcESaIcEEESt4pairIKS5_St8functionIFS5_S5_EEESt10_Select1stISB_ESt4lessIS5_ESaISB_EE4findERS7_;	.scl	2;	.type	32;	.endef
	.seh_proc	_ZNSt8_Rb_treeINSt7__cxx1112basic_stringIcSt11char_traitsIcESaIcEEESt4pairIKS5_St8functionIFS5_S5_EEESt10_Select1stISB_ESt4lessIS5_ESaISB_EE4findERS7_
_ZNSt8_Rb_treeINSt7__cxx1112basic_stringIcSt11char_traitsIcESaIcEEESt4pairIKS5_St8functionIFS5_S5_EEESt10_Select1stISB_ESt4lessIS5_ESaISB_EE4findERS7_:
.LFB4711:
	pushq	%r15
	.seh_pushreg	%r15
	pushq	%r14
	.seh_pushreg	%r14
	pushq	%r13
	.seh_pushreg	%r13
	pushq	%r12
	.seh_pushreg	%r12
	pushq	%rbp
	.seh_pushreg	%rbp
	pushq	%rdi
	.seh_pushreg	%rdi
	pushq	%rsi
	.seh_pushreg	%rsi
	pushq	%rbx
	.seh_pushreg	%rbx
	subq	$40, %rsp
	.seh_stackalloc	40
	.seh_endprologue
	movq	16(%rcx), %rsi
	leaq	8(%rcx), %r14
	testq	%rsi, %rsi
	je	.L193
	movq	(%rdx), %rbp
	movq	8(%rdx), %r15
	movq	%r14, %rdi
	movl	$2147483648, %r12d
	movabsq	$-2147483649, %r13
	jmp	.L189
	.p2align 4,,10
	.p2align 3
.L187:
	movq	24(%rsi), %rsi
	testq	%rsi, %rsi
	je	.L201
.L189:
	movq	40(%rsi), %rbx
	movq	%r15, %r8
	cmpq	%r15, %rbx
	cmovbe	%rbx, %r8
	testq	%r8, %r8
	je	.L184
	movq	32(%rsi), %rcx
	movq	%rbp, %rdx
	call	memcmp
	testl	%eax, %eax
	jne	.L185
.L184:
	subq	%r15, %rbx
	cmpq	%r12, %rbx
	jge	.L186
	cmpq	%r13, %rbx
	jle	.L187
	movl	%ebx, %eax
.L185:
	testl	%eax, %eax
	js	.L187
.L186:
	movq	%rsi, %rdi
	movq	16(%rsi), %rsi
	testq	%rsi, %rsi
	jne	.L189
.L201:
	cmpq	%rdi, %r14
	je	.L183
	movq	40(%rdi), %rbx
	movq	%r15, %r8
	cmpq	%r15, %rbx
	cmovbe	%rbx, %r8
	testq	%r8, %r8
	je	.L190
	movq	32(%rdi), %rdx
	movq	%rbp, %rcx
	call	memcmp
	testl	%eax, %eax
	jne	.L191
.L190:
	subq	%rbx, %r15
	cmpq	$2147483647, %r15
	jg	.L183
	cmpq	$-2147483648, %r15
	jl	.L193
	movl	%r15d, %eax
.L191:
	testl	%eax, %eax
	cmovs	%r14, %rdi
.L183:
	movq	%rdi, %rax
	addq	$40, %rsp
	popq	%rbx
	popq	%rsi
	popq	%rdi
	popq	%rbp
	popq	%r12
	popq	%r13
	popq	%r14
	popq	%r15
	ret
	.p2align 4,,10
	.p2align 3
.L193:
	movq	%r14, %rdi
	jmp	.L183
	.seh_endproc
	.section	.text$_ZNSt8_Rb_treeINSt7__cxx1112basic_stringIcSt11char_traitsIcESaIcEEESt4pairIKS5_St8functionIFyyEEESt10_Select1stISB_ESt4lessIS5_ESaISB_EE24_M_get_insert_unique_posERS7_,"x"
	.linkonce discard
	.align 2
	.p2align 4
	.globl	_ZNSt8_Rb_treeINSt7__cxx1112basic_stringIcSt11char_traitsIcESaIcEEESt4pairIKS5_St8functionIFyyEEESt10_Select1stISB_ESt4lessIS5_ESaISB_EE24_M_get_insert_unique_posERS7_
	.def	_ZNSt8_Rb_treeINSt7__cxx1112basic_stringIcSt11char_traitsIcESaIcEEESt4pairIKS5_St8functionIFyyEEESt10_Select1stISB_ESt4lessIS5_ESaISB_EE24_M_get_insert_unique_posERS7_;	.scl	2;	.type	32;	.endef
	.seh_proc	_ZNSt8_Rb_treeINSt7__cxx1112basic_stringIcSt11char_traitsIcESaIcEEESt4pairIKS5_St8functionIFyyEEESt10_Select1stISB_ESt4lessIS5_ESaISB_EE24_M_get_insert_unique_posERS7_
_ZNSt8_Rb_treeINSt7__cxx1112basic_stringIcSt11char_traitsIcESaIcEEESt4pairIKS5_St8functionIFyyEEESt10_Select1stISB_ESt4lessIS5_ESaISB_EE24_M_get_insert_unique_posERS7_:
.LFB5179:
	pushq	%r15
	.seh_pushreg	%r15
	pushq	%r14
	.seh_pushreg	%r14
	pushq	%r13
	.seh_pushreg	%r13
	pushq	%r12
	.seh_pushreg	%r12
	pushq	%rbp
	.seh_pushreg	%rbp
	pushq	%rdi
	.seh_pushreg	%rdi
	pushq	%rsi
	.seh_pushreg	%rsi
	pushq	%rbx
	.seh_pushreg	%rbx
	subq	$40, %rsp
	.seh_stackalloc	40
	.seh_endprologue
	movq	16(%rdx), %rbx
	movq	%rcx, 112(%rsp)
	movq	%rdx, 120(%rsp)
	movq	%r8, 128(%rsp)
	testq	%rbx, %rbx
	je	.L227
	movq	128(%rsp), %rax
	movl	$2147483648, %edi
	movabsq	$-2147483649, %r13
	movq	(%rax), %rsi
	movq	8(%rax), %r14
	jmp	.L210
	.p2align 4,,10
	.p2align 3
.L208:
	movq	16(%rbx), %rax
	movl	$1, %edx
	testq	%rax, %rax
	je	.L228
.L218:
	movq	%rax, %rbx
.L210:
	movq	40(%rbx), %r15
	movq	32(%rbx), %r12
	cmpq	%r15, %r14
	movq	%r15, %rbp
	cmovbe	%r14, %rbp
	testq	%rbp, %rbp
	je	.L205
	movq	%rbp, %r8
	movq	%r12, %rdx
	movq	%rsi, %rcx
	call	memcmp
	testl	%eax, %eax
	jne	.L206
.L205:
	movq	%r14, %rax
	subq	%r15, %rax
	cmpq	%rdi, %rax
	jge	.L207
	cmpq	%r13, %rax
	jle	.L208
.L206:
	testl	%eax, %eax
	js	.L208
.L207:
	movq	24(%rbx), %rax
	xorl	%edx, %edx
	testq	%rax, %rax
	jne	.L218
.L228:
	movq	%rbx, %rdi
	testb	%dl, %dl
	jne	.L204
.L211:
	testq	%rbp, %rbp
	je	.L214
	movq	%rbp, %r8
	movq	%rsi, %rdx
	movq	%r12, %rcx
	call	memcmp
	testl	%eax, %eax
	jne	.L215
.L214:
	subq	%r14, %r15
	cmpq	$2147483647, %r15
	jg	.L216
	cmpq	$-2147483648, %r15
	jl	.L217
	movl	%r15d, %eax
.L215:
	testl	%eax, %eax
	js	.L217
.L216:
	movq	112(%rsp), %rax
	movq	%rbx, (%rax)
	movq	$0, 8(%rax)
.L202:
	movq	112(%rsp), %rax
	addq	$40, %rsp
	popq	%rbx
	popq	%rsi
	popq	%rdi
	popq	%rbp
	popq	%r12
	popq	%r13
	popq	%r14
	popq	%r15
	ret
	.p2align 4,,10
	.p2align 3
.L227:
	leaq	8(%rdx), %rbx
.L204:
	movq	120(%rsp), %rax
	cmpq	%rbx, 24(%rax)
	je	.L229
	movq	%rbx, %rcx
	call	_ZSt18_Rb_tree_decrementPSt18_Rb_tree_node_base
	movq	128(%rsp), %rdi
	movq	128(%rsp), %rsi
	movq	40(%rax), %r15
	movq	32(%rax), %r12
	movq	8(%rdi), %r14
	movq	(%rsi), %rsi
	movq	%rbx, %rdi
	movq	%rax, %rbx
	movq	%r15, %rbp
	cmpq	%r15, %r14
	cmovbe	%r14, %rbp
	jmp	.L211
	.p2align 4,,10
	.p2align 3
.L217:
	movq	112(%rsp), %rax
	movq	$0, (%rax)
	movq	%rdi, 8(%rax)
	jmp	.L202
	.p2align 4,,10
	.p2align 3
.L229:
	movq	112(%rsp), %rax
	movq	$0, (%rax)
	movq	%rbx, 8(%rax)
	jmp	.L202
	.seh_endproc
	.section	.text$_ZNSt8_Rb_treeINSt7__cxx1112basic_stringIcSt11char_traitsIcESaIcEEESt4pairIKS5_St8functionIFS5_S5_EEESt10_Select1stISB_ESt4lessIS5_ESaISB_EE24_M_get_insert_unique_posERS7_,"x"
	.linkonce discard
	.align 2
	.p2align 4
	.globl	_ZNSt8_Rb_treeINSt7__cxx1112basic_stringIcSt11char_traitsIcESaIcEEESt4pairIKS5_St8functionIFS5_S5_EEESt10_Select1stISB_ESt4lessIS5_ESaISB_EE24_M_get_insert_unique_posERS7_
	.def	_ZNSt8_Rb_treeINSt7__cxx1112basic_stringIcSt11char_traitsIcESaIcEEESt4pairIKS5_St8functionIFS5_S5_EEESt10_Select1stISB_ESt4lessIS5_ESaISB_EE24_M_get_insert_unique_posERS7_;	.scl	2;	.type	32;	.endef
	.seh_proc	_ZNSt8_Rb_treeINSt7__cxx1112basic_stringIcSt11char_traitsIcESaIcEEESt4pairIKS5_St8functionIFS5_S5_EEESt10_Select1stISB_ESt4lessIS5_ESaISB_EE24_M_get_insert_unique_posERS7_
_ZNSt8_Rb_treeINSt7__cxx1112basic_stringIcSt11char_traitsIcESaIcEEESt4pairIKS5_St8functionIFS5_S5_EEESt10_Select1stISB_ESt4lessIS5_ESaISB_EE24_M_get_insert_unique_posERS7_:
.LFB5212:
	pushq	%r15
	.seh_pushreg	%r15
	pushq	%r14
	.seh_pushreg	%r14
	pushq	%r13
	.seh_pushreg	%r13
	pushq	%r12
	.seh_pushreg	%r12
	pushq	%rbp
	.seh_pushreg	%rbp
	pushq	%rdi
	.seh_pushreg	%rdi
	pushq	%rsi
	.seh_pushreg	%rsi
	pushq	%rbx
	.seh_pushreg	%rbx
	subq	$40, %rsp
	.seh_stackalloc	40
	.seh_endprologue
	movq	16(%rdx), %rbx
	movq	%rcx, 112(%rsp)
	movq	%rdx, 120(%rsp)
	movq	%r8, 128(%rsp)
	testq	%rbx, %rbx
	je	.L255
	movq	128(%rsp), %rax
	movl	$2147483648, %edi
	movabsq	$-2147483649, %r13
	movq	(%rax), %rsi
	movq	8(%rax), %r14
	jmp	.L238
	.p2align 4,,10
	.p2align 3
.L236:
	movq	16(%rbx), %rax
	movl	$1, %edx
	testq	%rax, %rax
	je	.L256
.L246:
	movq	%rax, %rbx
.L238:
	movq	40(%rbx), %r15
	movq	32(%rbx), %r12
	cmpq	%r15, %r14
	movq	%r15, %rbp
	cmovbe	%r14, %rbp
	testq	%rbp, %rbp
	je	.L233
	movq	%rbp, %r8
	movq	%r12, %rdx
	movq	%rsi, %rcx
	call	memcmp
	testl	%eax, %eax
	jne	.L234
.L233:
	movq	%r14, %rax
	subq	%r15, %rax
	cmpq	%rdi, %rax
	jge	.L235
	cmpq	%r13, %rax
	jle	.L236
.L234:
	testl	%eax, %eax
	js	.L236
.L235:
	movq	24(%rbx), %rax
	xorl	%edx, %edx
	testq	%rax, %rax
	jne	.L246
.L256:
	movq	%rbx, %rdi
	testb	%dl, %dl
	jne	.L232
.L239:
	testq	%rbp, %rbp
	je	.L242
	movq	%rbp, %r8
	movq	%rsi, %rdx
	movq	%r12, %rcx
	call	memcmp
	testl	%eax, %eax
	jne	.L243
.L242:
	subq	%r14, %r15
	cmpq	$2147483647, %r15
	jg	.L244
	cmpq	$-2147483648, %r15
	jl	.L245
	movl	%r15d, %eax
.L243:
	testl	%eax, %eax
	js	.L245
.L244:
	movq	112(%rsp), %rax
	movq	%rbx, (%rax)
	movq	$0, 8(%rax)
.L230:
	movq	112(%rsp), %rax
	addq	$40, %rsp
	popq	%rbx
	popq	%rsi
	popq	%rdi
	popq	%rbp
	popq	%r12
	popq	%r13
	popq	%r14
	popq	%r15
	ret
	.p2align 4,,10
	.p2align 3
.L255:
	leaq	8(%rdx), %rbx
.L232:
	movq	120(%rsp), %rax
	cmpq	%rbx, 24(%rax)
	je	.L257
	movq	%rbx, %rcx
	call	_ZSt18_Rb_tree_decrementPSt18_Rb_tree_node_base
	movq	128(%rsp), %rdi
	movq	128(%rsp), %rsi
	movq	40(%rax), %r15
	movq	32(%rax), %r12
	movq	8(%rdi), %r14
	movq	(%rsi), %rsi
	movq	%rbx, %rdi
	movq	%rax, %rbx
	movq	%r15, %rbp
	cmpq	%r15, %r14
	cmovbe	%r14, %rbp
	jmp	.L239
	.p2align 4,,10
	.p2align 3
.L245:
	movq	112(%rsp), %rax
	movq	$0, (%rax)
	movq	%rdi, 8(%rax)
	jmp	.L230
	.p2align 4,,10
	.p2align 3
.L257:
	movq	112(%rsp), %rax
	movq	$0, (%rax)
	movq	%rbx, 8(%rax)
	jmp	.L230
	.seh_endproc
	.def	__main;	.scl	2;	.type	32;	.endef
	.section .rdata,"dr"
.LC2:
	.ascii "\0"
.LC3:
	.ascii "Enter argument: \0"
.LC4:
	.ascii "Time: \0"
.LC6:
	.ascii "\12\0"
.LC7:
	.ascii "Result: \0"
.LC8:
	.ascii "Set data file: \0"
.LC9:
	.ascii "Invalid file name\12\0"
.LC10:
	.ascii "Uknown command\12\0"
	.section	.text.startup,"x"
	.p2align 4
	.globl	main
	.def	main;	.scl	2;	.type	32;	.endef
	.seh_proc	main
main:
.LFB3999:
	pushq	%r15
	.seh_pushreg	%r15
	pushq	%r14
	.seh_pushreg	%r14
	pushq	%r13
	.seh_pushreg	%r13
	pushq	%r12
	.seh_pushreg	%r12
	pushq	%rbp
	.seh_pushreg	%rbp
	pushq	%rdi
	.seh_pushreg	%rdi
	pushq	%rsi
	.seh_pushreg	%rsi
	pushq	%rbx
	.seh_pushreg	%rbx
	subq	$1000, %rsp
	.seh_stackalloc	1000
	movaps	%xmm6, 976(%rsp)
	.seh_savexmm	%xmm6, 976
	.seh_endprologue
	leaq	432(%rsp), %rsi
	leaq	480(%rsp), %r14
	call	__main
	xorl	%r8d, %r8d
	movq	%rsi, %rdx
	movq	%r14, %rcx
	leaq	496(%rsp), %rax
	movq	%rsi, 48(%rsp)
	movq	%rax, 88(%rsp)
	movq	%rax, 480(%rsp)
	movq	$21, 432(%rsp)
.LEHB5:
	call	_ZNSt7__cxx1112basic_stringIcSt11char_traitsIcESaIcEE9_M_createERyy
.LEHE5:
	leaq	_ZNSt17_Function_handlerIFyyEPFyjEE9_M_invokeERKSt9_Any_dataOy(%rip), %rdx
	xorl	%r8d, %r8d
	leaq	_ZNSt17_Function_handlerIFyyEPFyjEE10_M_managerERSt9_Any_dataRKS4_St18_Manager_operation(%rip), %rdi
	movq	%rax, 480(%rsp)
	movq	%rdx, 56(%rsp)
	movq	%rdi, %xmm6
	movq	432(%rsp), %rdx
	movabsq	$7957687270880077159, %rdi
	movabsq	$7092453967814419297, %rbp
	movq	%rdx, 496(%rsp)
	movq	%rdi, (%rax)
	movhps	56(%rsp), %xmm6
	movabsq	$7238502251883556213, %rdi
	movq	%rbp, 8(%rax)
	movq	%rdi, 13(%rax)
	movq	432(%rsp), %rax
	movq	480(%rsp), %rdx
	movq	%rax, 488(%rsp)
	movb	$0, (%rdx,%rax)
	movq	.refptr._ZN7fbncrec21getFibonacciNumberStdEj(%rip), %rax
	movq	%rsi, %rdx
	movq	$0, 520(%rsp)
	movq	%rax, 512(%rsp)
	leaq	560(%rsp), %rax
	movq	%rax, 96(%rsp)
	movq	%rax, 544(%rsp)
	leaq	544(%rsp), %rax
	movq	%rax, %rcx
	movq	%rax, 120(%rsp)
	movq	$22, 432(%rsp)
	movaps	%xmm6, 528(%rsp)
.LEHB6:
	call	_ZNSt7__cxx1112basic_stringIcSt11char_traitsIcESaIcEE9_M_createERyy
.LEHE6:
	movq	432(%rsp), %rdx
	pxor	%xmm0, %xmm0
	movabsq	$7957687270880077159, %rdi
	movq	%rax, 544(%rsp)
	movabsq	$7092453967814419297, %rbp
	movl	$16, %ecx
	movq	%rdx, 560(%rsp)
	movq	%rdi, (%rax)
	movabsq	$7811882043975230061, %rdi
	movq	%rbp, 8(%rax)
	movq	%rdi, 14(%rax)
	movq	432(%rsp), %rax
	movq	544(%rsp), %rdx
	movq	%rax, 552(%rsp)
	movb	$0, (%rdx,%rax)
	movq	$0, 592(%rsp)
	movq	$0, 600(%rsp)
	movaps	%xmm0, 576(%rsp)
.LEHB7:
	call	_Znwy
.LEHE7:
	movq	.refptr._ZN7fbncrec22getFibonacciNumberTailEjyy(%rip), %rdx
	movq	48(%rsp), %rbx
	xorl	%r8d, %r8d
	movq	%rax, 576(%rsp)
	leaq	_ZNSt17_Function_handlerIFyyESt5_BindIFPFyjyyESt12_PlaceholderILi1EEiiEEE10_M_managerERSt9_Any_dataRKS9_St18_Manager_operation(%rip), %rdi
	movq	$28, 432(%rsp)
	movq	%rdx, (%rax)
	movq	.LC1(%rip), %rdx
	movq	%rdi, %xmm0
	movq	%rdx, 8(%rax)
	leaq	_ZNSt17_Function_handlerIFyyESt5_BindIFPFyjyyESt12_PlaceholderILi1EEiiEEE9_M_invokeERKSt9_Any_dataOy(%rip), %rax
	movq	%rbx, %rdx
	movq	%rax, 56(%rsp)
	leaq	624(%rsp), %rax
	movq	%rax, 112(%rsp)
	movq	%rax, 608(%rsp)
	leaq	608(%rsp), %rax
	movhps	56(%rsp), %xmm0
	movq	%rax, %rcx
	movq	%rax, 104(%rsp)
	movaps	%xmm0, 592(%rsp)
.LEHB8:
	call	_ZNSt7__cxx1112basic_stringIcSt11char_traitsIcESaIcEE9_M_createERyy
.LEHE8:
	movq	432(%rsp), %rdx
	movq	%rax, 608(%rsp)
	xorl	%r8d, %r8d
	movabsq	$7957687270880077159, %rdi
	movabsq	$7092453967814419297, %rbp
	movq	%rdx, 624(%rsp)
	movq	%rbp, 8(%rax)
	movabsq	$7308895159715917153, %rbp
	movq	%rdi, (%rax)
	movabsq	$8238335398136083790, %rdi
	movq	%rdi, 12(%rax)
	movq	%rbp, 20(%rax)
	movq	432(%rsp), %rax
	movq	608(%rsp), %rdx
	movq	%rax, 616(%rsp)
	movb	$0, (%rdx,%rax)
	movq	.refptr._ZN7fbncrec28getFibonacciNumberTrampolineEj(%rip), %rax
	movq	%rbx, %rdx
	movq	$0, 648(%rsp)
	movq	%rax, 640(%rsp)
	leaq	688(%rsp), %rax
	movq	%rax, 672(%rsp)
	leaq	672(%rsp), %rax
	movq	%rax, %rcx
	movq	%rax, 72(%rsp)
	movq	$16, 432(%rsp)
	movaps	%xmm6, 656(%rsp)
.LEHB9:
	call	_ZNSt7__cxx1112basic_stringIcSt11char_traitsIcESaIcEE9_M_createERyy
.LEHE9:
	leaq	_ZNSt17_Function_handlerIFyyEPS0_E9_M_invokeERKSt9_Any_dataOy(%rip), %rdx
	leaq	_ZNSt17_Function_handlerIFyyEPS0_E10_M_managerERSt9_Any_dataRKS3_St18_Manager_operation(%rip), %rdi
	xorl	%r8d, %r8d
	movabsq	$7238502097431586158, %rbp
	movq	%rdx, 56(%rsp)
	movq	432(%rsp), %rdx
	movq	%rdi, %xmm6
	movabsq	$5723353238056301939, %rdi
	movq	%rax, 672(%rsp)
	leaq	736(%rsp), %rbx
	movq	%rdx, 688(%rsp)
	movq	%rbx, %rcx
	movq	%rdi, (%rax)
	movhps	56(%rsp), %xmm6
	movq	%rbp, 8(%rax)
	movq	432(%rsp), %rax
	movq	672(%rsp), %rdx
	movq	%rax, 680(%rsp)
	movb	$0, (%rdx,%rax)
	movq	.refptr._ZN9frmoneton16sumFromOneToNStdEy(%rip), %rax
	movq	48(%rsp), %rdx
	movaps	%xmm6, 720(%rsp)
	movq	%rax, 704(%rsp)
	leaq	752(%rsp), %rax
	movq	$0, 712(%rsp)
	movq	%rax, 736(%rsp)
	movq	$17, 432(%rsp)
.LEHB10:
	call	_ZNSt7__cxx1112basic_stringIcSt11char_traitsIcESaIcEE9_M_createERyy
.LEHE10:
	movq	432(%rsp), %rdx
	movq	%rax, 736(%rsp)
	movabsq	$5723353238056301939, %rdi
	movabsq	$7593443142575351150, %rbp
	pxor	%xmm0, %xmm0
	movl	$16, %ecx
	movq	%rdx, 752(%rsp)
	movq	%rdi, (%rax)
	movq	%rbp, 8(%rax)
	movb	$108, 16(%rax)
	movq	432(%rsp), %rax
	movq	736(%rsp), %rdx
	movq	%rax, 744(%rsp)
	movb	$0, (%rdx,%rax)
	movq	$0, 784(%rsp)
	movq	$0, 792(%rsp)
	movaps	%xmm0, 768(%rsp)
.LEHB11:
	call	_Znwy
.LEHE11:
	movq	.refptr._ZN9frmoneton17sumFromOneToNTailEyy(%rip), %rdx
	movl	$0, 8(%rax)
	leaq	_ZNSt17_Function_handlerIFyyESt5_BindIFPFyyyESt12_PlaceholderILi1EEiEEE10_M_managerERSt9_Any_dataRKS9_St18_Manager_operation(%rip), %rdi
	leaq	800(%rsp), %rcx
	movq	%rax, 768(%rsp)
	xorl	%r8d, %r8d
	movq	%rdi, %xmm0
	movq	%rdx, (%rax)
	leaq	_ZNSt17_Function_handlerIFyyESt5_BindIFPFyyyESt12_PlaceholderILi1EEiEEE9_M_invokeERKSt9_Any_dataOy(%rip), %rax
	movq	48(%rsp), %rdx
	movq	%rax, 56(%rsp)
	leaq	816(%rsp), %rax
	movq	%rax, 800(%rsp)
	movq	$23, 432(%rsp)
	movhps	56(%rsp), %xmm0
	movaps	%xmm0, 784(%rsp)
.LEHB12:
	call	_ZNSt7__cxx1112basic_stringIcSt11char_traitsIcESaIcEE9_M_createERyy
.LEHE12:
	movq	432(%rsp), %rdx
	movq	%r14, %rbx
	movabsq	$5723353238056301939, %rdi
	movq	%rax, 800(%rsp)
	leaq	864(%rsp), %r12
	leaq	384(%rsp), %r15
	movabsq	$7021767464876008814, %rbp
	movq	%rdx, 816(%rsp)
	movq	%rdi, (%rax)
	movabsq	$7308895159715917153, %rdi
	movq	%rbp, 8(%rax)
	movq	%rdi, 15(%rax)
	movq	432(%rsp), %rax
	leaq	128(%rsp), %rdi
	movq	800(%rsp), %rdx
	movq	%rdi, 64(%rsp)
	movq	%rax, 808(%rsp)
	movb	$0, (%rdx,%rax)
	movq	.refptr._ZN9frmoneton23sumFromOneToNTrampolineEy(%rip), %rax
	movq	$0, 840(%rsp)
	movl	$0, 392(%rsp)
	movq	$0, 400(%rsp)
	movq	$0, 424(%rsp)
	movq	%rax, 832(%rsp)
	leaq	392(%rsp), %rax
	movq	%rax, 56(%rsp)
	movq	%rax, 408(%rsp)
	movq	%rax, 416(%rsp)
	xorl	%eax, %eax
	movaps	%xmm6, 848(%rsp)
	pxor	%xmm6, %xmm6
	.p2align 4,,10
	.p2align 3
.L288:
	testq	%rax, %rax
	je	.L274
	movq	416(%rsp), %rbp
	movq	8(%rbx), %rdi
	movq	(%rbx), %rdx
	movq	40(%rbp), %rsi
	movq	%rdi, %r8
	movq	32(%rbp), %rcx
	cmpq	%rdi, %rsi
	cmovbe	%rsi, %r8
	testq	%r8, %r8
	je	.L275
	call	memcmp
	testl	%eax, %eax
	jne	.L276
.L275:
	subq	%rdi, %rsi
	cmpq	$2147483647, %rsi
	jg	.L274
	cmpq	$-2147483648, %rsi
	jl	.L378
	movl	%esi, %eax
.L276:
	testl	%eax, %eax
	js	.L378
	.p2align 4,,10
	.p2align 3
.L274:
	movq	64(%rsp), %rcx
	movq	%rbx, %r8
	movq	%r15, %rdx
	call	_ZNSt8_Rb_treeINSt7__cxx1112basic_stringIcSt11char_traitsIcESaIcEEESt4pairIKS5_St8functionIFyyEEESt10_Select1stISB_ESt4lessIS5_ESaISB_EE24_M_get_insert_unique_posERS7_
	movq	136(%rsp), %rbp
	movq	128(%rsp), %rax
	testq	%rbp, %rbp
	je	.L278
.L277:
	movq	56(%rsp), %rdi
	cmpq	%rdi, %rbp
	sete	%dil
	testq	%rax, %rax
	setne	%al
	orb	%al, %dil
	je	.L499
.L279:
	movl	$96, %ecx
.LEHB13:
	call	_Znwy
.LEHE13:
	movq	%rax, %rsi
	leaq	32(%rax), %r13
	leaq	48(%rax), %rax
	movq	(%rbx), %rdx
	movq	8(%rbx), %r8
	movq	%rax, 32(%rsi)
	movq	%r13, %rcx
	addq	%rdx, %r8
.LEHB14:
	call	_ZNSt7__cxx1112basic_stringIcSt11char_traitsIcESaIcEE12_M_constructIPcEEvT_S7_St20forward_iterator_tag.isra.0
.LEHE14:
	movq	48(%rbx), %rax
	movq	$0, 80(%rsi)
	movq	$0, 88(%rsi)
	movups	%xmm6, 64(%rsi)
	testq	%rax, %rax
	je	.L282
	leaq	64(%rsi), %rcx
	leaq	32(%rbx), %rdx
	movl	$2, %r8d
	movq	%rcx, 80(%rsp)
.LEHB15:
	call	*%rax
.LEHE15:
	movdqa	48(%rbx), %xmm3
	movups	%xmm3, 80(%rsi)
.L282:
	movq	56(%rsp), %r9
	movzbl	%dil, %ecx
	movq	%rbp, %r8
	movq	%rsi, %rdx
	call	_ZSt29_Rb_tree_insert_and_rebalancebPSt18_Rb_tree_node_baseS0_RS_
	addq	$1, 424(%rsp)
.L278:
	addq	$64, %rbx
	cmpq	%r12, %rbx
	je	.L287
	movq	424(%rsp), %rax
	jmp	.L288
.L499:
	movq	8(%rbx), %rsi
	movq	40(%rbp), %r13
	cmpq	%r13, %rsi
	movq	%r13, %r8
	cmovbe	%rsi, %r8
	testq	%r8, %r8
	je	.L280
	movq	32(%rbp), %rdx
	movq	(%rbx), %rcx
	call	memcmp
	testl	%eax, %eax
	jne	.L281
.L280:
	subq	%r13, %rsi
	cmpq	$2147483647, %rsi
	jg	.L279
	cmpq	$-2147483648, %rsi
	jl	.L379
	movl	%esi, %eax
.L281:
	shrl	$31, %eax
	movl	%eax, %edi
	jmp	.L279
.L287:
	leaq	_ZNSt17_Function_handlerIFNSt7__cxx1112basic_stringIcSt11char_traitsIcESaIcEEES5_EPS6_E9_M_invokeERKSt9_Any_dataOS5_(%rip), %rax
	leaq	_ZNSt17_Function_handlerIFNSt7__cxx1112basic_stringIcSt11char_traitsIcESaIcEEES5_EPS6_E10_M_managerERSt9_Any_dataRKS9_St18_Manager_operation(%rip), %rdi
	movq	%rax, 64(%rsp)
	movq	%rdi, %xmm6
	movhps	64(%rsp), %xmm6
	.p2align 4,,10
	.p2align 3
.L292:
	movq	-16(%rbx), %rax
	subq	$64, %rbx
	testq	%rax, %rax
	je	.L290
	leaq	32(%rbx), %rcx
	movl	$3, %r8d
	movq	%rcx, %rdx
	call	*%rax
.L290:
	movq	(%rbx), %rcx
	leaq	16(%rbx), %rax
	cmpq	%rax, %rcx
	je	.L291
	movq	16(%rbx), %rax
	leaq	1(%rax), %rdx
	call	_ZdlPvy
.L291:
	cmpq	%r14, %rbx
	jne	.L292
	movq	88(%rsp), %rax
	movq	.refptr._ZN11delspacerec14deleteSpaceStdENSt7__cxx1112basic_stringIcSt11char_traitsIcESaIcEEE(%rip), %rdx
	pxor	%xmm0, %xmm0
	movabsq	$7238502196015362131, %rdi
	movl	$16, %ecx
	movq	$14, 488(%rsp)
	movq	%rax, 480(%rsp)
	movabsq	$8093924505907127652, %rax
	movq	%rax, 496(%rsp)
	movq	%rdi, 502(%rsp)
	movq	96(%rsp), %rdi
	movq	%rax, 560(%rsp)
	movabsq	$7811882043756994928, %rax
	movb	$0, 510(%rsp)
	movq	$0, 520(%rsp)
	movq	%rdx, 512(%rsp)
	movq	%rdi, 544(%rsp)
	movq	%rax, 567(%rsp)
	movq	$15, 552(%rsp)
	movb	$0, 575(%rsp)
	movq	$0, 592(%rsp)
	movq	$0, 600(%rsp)
	movaps	%xmm6, 528(%rsp)
	movaps	%xmm0, 576(%rsp)
.LEHB16:
	call	_Znwy
.LEHE16:
	movq	.refptr._ZN11delspacerec15deleteSpaceTailENSt7__cxx1112basic_stringIcSt11char_traitsIcESaIcEEES5_(%rip), %rdx
	leaq	.LC2(%rip), %rdi
	movq	104(%rsp), %rcx
	xorl	%r8d, %r8d
	movq	%rdi, 8(%rax)
	leaq	_ZNSt17_Function_handlerIFNSt7__cxx1112basic_stringIcSt11char_traitsIcESaIcEEES5_ESt5_BindIFPFS5_S5_S5_ESt12_PlaceholderILi1EEPKcEEE10_M_managerERSt9_Any_dataRKSH_St18_Manager_operation(%rip), %rdi
	movq	%rdx, (%rax)
	movq	%rdi, %xmm0
	movq	48(%rsp), %rdx
	movq	%rax, 576(%rsp)
	leaq	_ZNSt17_Function_handlerIFNSt7__cxx1112basic_stringIcSt11char_traitsIcESaIcEEES5_ESt5_BindIFPFS5_S5_S5_ESt12_PlaceholderILi1EEPKcEEE9_M_invokeERKSt9_Any_dataOS5_(%rip), %rax
	movq	%rax, 64(%rsp)
	movq	112(%rsp), %rax
	movq	$21, 432(%rsp)
	movq	%rax, 608(%rsp)
	movhps	64(%rsp), %xmm0
	movaps	%xmm0, 592(%rsp)
.LEHB17:
	call	_ZNSt7__cxx1112basic_stringIcSt11char_traitsIcESaIcEE9_M_createERyy
.LEHE17:
	movq	432(%rsp), %rdx
	movq	%r14, %rbx
	movabsq	$8093924505907127652, %rdi
	movq	%rax, 608(%rsp)
	movabsq	$8101238448379487073, %rbp
	leaq	128(%rsp), %r12
	movq	%rdx, 624(%rsp)
	movq	%rdi, (%rax)
	movabsq	$7308895159715917153, %rdi
	movq	%rbp, 8(%rax)
	movq	%rdi, 13(%rax)
	movq	432(%rsp), %rax
	movq	608(%rsp), %rdx
	movq	%rax, 616(%rsp)
	movb	$0, (%rdx,%rax)
	movq	.refptr._ZN11delspacerec21deleteSpaceTrampolineENSt7__cxx1112basic_stringIcSt11char_traitsIcESaIcEEE(%rip), %rax
	movq	$0, 648(%rsp)
	movl	$0, 440(%rsp)
	movq	$0, 448(%rsp)
	movq	$0, 472(%rsp)
	movq	%rax, 640(%rsp)
	leaq	440(%rsp), %rax
	movq	%rax, 64(%rsp)
	movq	%rax, 456(%rsp)
	movq	%rax, 464(%rsp)
	xorl	%eax, %eax
	movaps	%xmm6, 656(%rsp)
	pxor	%xmm6, %xmm6
	.p2align 4,,10
	.p2align 3
.L311:
	testq	%rax, %rax
	je	.L297
	movq	464(%rsp), %rbp
	movq	8(%rbx), %rdi
	movq	(%rbx), %rdx
	movq	40(%rbp), %rsi
	movq	%rdi, %r8
	movq	32(%rbp), %rcx
	cmpq	%rdi, %rsi
	cmovbe	%rsi, %r8
	testq	%r8, %r8
	je	.L298
	call	memcmp
	testl	%eax, %eax
	jne	.L299
.L298:
	subq	%rdi, %rsi
	cmpq	$2147483647, %rsi
	jg	.L297
	cmpq	$-2147483648, %rsi
	jl	.L381
	movl	%esi, %eax
.L299:
	testl	%eax, %eax
	js	.L381
	.p2align 4,,10
	.p2align 3
.L297:
	movq	48(%rsp), %rdx
	movq	%rbx, %r8
	movq	%r12, %rcx
	call	_ZNSt8_Rb_treeINSt7__cxx1112basic_stringIcSt11char_traitsIcESaIcEEESt4pairIKS5_St8functionIFS5_S5_EEESt10_Select1stISB_ESt4lessIS5_ESaISB_EE24_M_get_insert_unique_posERS7_
	movq	136(%rsp), %rbp
	movq	128(%rsp), %rax
	testq	%rbp, %rbp
	je	.L301
.L300:
	movq	64(%rsp), %rdi
	cmpq	%rdi, %rbp
	sete	%dil
	testq	%rax, %rax
	setne	%al
	orb	%al, %dil
	je	.L500
.L302:
	movl	$96, %ecx
.LEHB18:
	call	_Znwy
.LEHE18:
	movq	%rax, %rsi
	leaq	32(%rax), %r13
	leaq	48(%rax), %rax
	movq	(%rbx), %rdx
	movq	8(%rbx), %r8
	movq	%rax, 32(%rsi)
	movq	%r13, %rcx
	addq	%rdx, %r8
.LEHB19:
	call	_ZNSt7__cxx1112basic_stringIcSt11char_traitsIcESaIcEE12_M_constructIPcEEvT_S7_St20forward_iterator_tag.isra.0
.LEHE19:
	movq	48(%rbx), %rax
	movq	$0, 80(%rsi)
	movq	$0, 88(%rsi)
	movups	%xmm6, 64(%rsi)
	testq	%rax, %rax
	je	.L305
	leaq	64(%rsi), %r15
	leaq	32(%rbx), %rdx
	movl	$2, %r8d
	movq	%r15, %rcx
.LEHB20:
	call	*%rax
.LEHE20:
	movdqa	48(%rbx), %xmm4
	movups	%xmm4, 80(%rsi)
.L305:
	movq	64(%rsp), %r9
	movzbl	%dil, %ecx
	movq	%rbp, %r8
	movq	%rsi, %rdx
	call	_ZSt29_Rb_tree_insert_and_rebalancebPSt18_Rb_tree_node_baseS0_RS_
	addq	$1, 472(%rsp)
.L301:
	movq	72(%rsp), %rax
	addq	$64, %rbx
	cmpq	%rax, %rbx
	je	.L310
	movq	472(%rsp), %rax
	jmp	.L311
	.p2align 4,,10
	.p2align 3
.L310:
	movq	-16(%rbx), %rax
	subq	$64, %rbx
	testq	%rax, %rax
	je	.L313
	leaq	32(%rbx), %rcx
	movl	$3, %r8d
	movq	%rcx, %rdx
	call	*%rax
.L313:
	movq	(%rbx), %rcx
	leaq	16(%rbx), %rax
	cmpq	%rax, %rcx
	je	.L314
	movq	16(%rbx), %rax
	leaq	1(%rax), %rdx
	call	_ZdlPvy
.L314:
	cmpq	%r14, %rbx
	jne	.L310
	movq	.refptr._ZSt3cin(%rip), %rbx
	leaq	160(%rsp), %rbp
	leaq	176(%rsp), %r15
	testb	$2, 48(%rbx)
	jne	.L365
	movq	.refptr._ZTVSt9basic_iosIcSt11char_traitsIcEE(%rip), %rax
	addq	$16, %rax
	movq	%rax, 104(%rsp)
	jmp	.L315
	.p2align 4,,10
	.p2align 3
.L503:
	movsbl	67(%rsi), %r8d
.L318:
	movq	%rbp, %rdx
	movq	%rbx, %rcx
.LEHB21:
	call	_ZSt7getlineIcSt11char_traitsIcESaIcEERSt13basic_istreamIT_T0_ES7_RNSt7__cxx1112basic_stringIS4_S5_T1_EES4_
	cmpq	$0, 168(%rsp)
	je	.L327
	leaq	384(%rsp), %rdi
	movq	%rbp, %rdx
	movq	%rdi, %rcx
	call	_ZNSt8_Rb_treeINSt7__cxx1112basic_stringIcSt11char_traitsIcESaIcEEESt4pairIKS5_St8functionIFyyEEESt10_Select1stISB_ESt4lessIS5_ESaISB_EE4findERS7_
	cmpq	%rax, 56(%rsp)
	je	.L320
	movq	.refptr._ZSt4cout(%rip), %rsi
	movl	$16, %r8d
	leaq	.LC3(%rip), %rdx
	movq	%rsi, %rcx
	call	_ZSt16__ostream_insertIcSt11char_traitsIcEERSt13basic_ostreamIT_T0_ES6_PKS3_x
	leaq	320(%rsp), %rdx
	movq	%rbx, %rcx
	movq	$0, 320(%rsp)
	call	_ZNSi10_M_extractIyEERSiRT_
.LEHE21:
	movq	%rdi, %rcx
	movq	%rbp, %rdx
	call	_ZNSt8_Rb_treeINSt7__cxx1112basic_stringIcSt11char_traitsIcESaIcEEESt4pairIKS5_St8functionIFyyEEESt10_Select1stISB_ESt4lessIS5_ESaISB_EE4findERS7_
	pxor	%xmm0, %xmm0
	movq	$0, 496(%rsp)
	movq	%rax, %rdi
	movaps	%xmm0, 480(%rsp)
	movq	80(%rax), %rax
	movq	$0, 504(%rsp)
	testq	%rax, %rax
	je	.L321
	leaq	64(%rdi), %rdx
	movl	$2, %r8d
	movq	%r14, %rcx
.LEHB22:
	call	*%rax
.LEHE22:
	movdqu	80(%rdi), %xmm5
	movaps	%xmm5, 496(%rsp)
.L321:
	movq	320(%rsp), %rdi
	call	clock
	cmpq	$0, 496(%rsp)
	movq	%rdi, 352(%rsp)
	movl	%eax, %r13d
	je	.L501
	leaq	352(%rsp), %rdx
	movq	%r14, %rcx
.LEHB23:
	call	*504(%rsp)
	movq	%rax, %r12
	call	clock
	movl	$6, %r8d
	leaq	.LC4(%rip), %rdx
	movq	%rsi, %rcx
	movl	%eax, %edi
	call	_ZSt16__ostream_insertIcSt11char_traitsIcEERSt13basic_ostreamIT_T0_ES6_PKS3_x
	movq	(%rsi), %rax
	subl	%r13d, %edi
	pxor	%xmm1, %xmm1
	movq	%rsi, %rcx
	cvtsi2sdl	%edi, %xmm1
	divsd	.LC5(%rip), %xmm1
	movq	-24(%rax), %rdx
	addq	%rsi, %rdx
	movl	24(%rdx), %eax
	movq	$6, 8(%rdx)
	andl	$-261, %eax
	orl	$4, %eax
	movl	%eax, 24(%rdx)
	call	_ZNSo9_M_insertIdEERSoT_
	leaq	.LC6(%rip), %rdi
	movq	%rax, %rcx
	movl	$1, %r8d
	movq	%rdi, %rdx
	call	_ZSt16__ostream_insertIcSt11char_traitsIcEERSt13basic_ostreamIT_T0_ES6_PKS3_x
	movl	$8, %r8d
	leaq	.LC7(%rip), %rdx
	movq	%rsi, %rcx
	call	_ZSt16__ostream_insertIcSt11char_traitsIcEERSt13basic_ostreamIT_T0_ES6_PKS3_x
	movq	%r12, %rdx
	movq	%rsi, %rcx
	call	_ZNSo9_M_insertIyEERSoT_
	movq	%rax, %rcx
	movl	$1, %r8d
	movq	%rdi, %rdx
	call	_ZSt16__ostream_insertIcSt11char_traitsIcEERSt13basic_ostreamIT_T0_ES6_PKS3_x
.LEHE23:
	movq	496(%rsp), %rax
	testq	%rax, %rax
	je	.L327
	movl	$3, %r8d
	movq	%r14, %rdx
	movq	%r14, %rcx
	call	*%rax
.L327:
	movq	160(%rsp), %rcx
	cmpq	%r15, %rcx
	je	.L364
.L496:
	movq	176(%rsp), %rax
	leaq	1(%rax), %rdx
	call	_ZdlPvy
.L364:
	testb	$2, 48(%rbx)
	jne	.L365
.L315:
	leaq	.LC2(%rip), %r8
	movq	%rbp, %rcx
	movq	%r15, 160(%rsp)
	movq	%r8, %rdx
.LEHB24:
	call	_ZNSt7__cxx1112basic_stringIcSt11char_traitsIcESaIcEE12_M_constructIPKcEEvT_S8_St20forward_iterator_tag.isra.0
.LEHE24:
	movq	(%rbx), %rax
	movq	-24(%rax), %rax
	movq	240(%rbx,%rax), %rsi
	testq	%rsi, %rsi
	je	.L502
	cmpb	$0, 56(%rsi)
	jne	.L503
	movq	%rsi, %rcx
.LEHB25:
	call	_ZNKSt5ctypeIcE13_M_widen_initEv
	movq	(%rsi), %rax
	leaq	_ZNKSt5ctypeIcE8do_widenEc(%rip), %rdx
	movl	$10, %r8d
	movq	48(%rax), %rax
	cmpq	%rdx, %rax
	je	.L318
	movl	$10, %edx
	movq	%rsi, %rcx
	call	*%rax
	movsbl	%al, %r8d
	jmp	.L318
.L378:
	xorl	%eax, %eax
	jmp	.L277
.L381:
	xorl	%eax, %eax
	jmp	.L300
	.p2align 4,,10
	.p2align 3
.L320:
	movq	48(%rsp), %rcx
	movq	%rbp, %rdx
	call	_ZNSt8_Rb_treeINSt7__cxx1112basic_stringIcSt11char_traitsIcESaIcEEESt4pairIKS5_St8functionIFS5_S5_EEESt10_Select1stISB_ESt4lessIS5_ESaISB_EE4findERS7_
	cmpq	%rax, 64(%rsp)
	je	.L328
	movq	.refptr._ZSt4cout(%rip), %rcx
	movl	$15, %r8d
	leaq	.LC8(%rip), %rdx
	call	_ZSt16__ostream_insertIcSt11char_traitsIcEERSt13basic_ostreamIT_T0_ES6_PKS3_x
.LEHE25:
	leaq	192(%rsp), %rax
	movq	%rbx, %rcx
	movq	$0, 200(%rsp)
	movq	%rax, 96(%rsp)
	movq	%rax, %rdx
	leaq	208(%rsp), %rax
	movq	%rax, 192(%rsp)
	movb	$0, 208(%rsp)
.LEHB26:
	call	_ZStrsIcSt11char_traitsIcESaIcEERSt13basic_istreamIT_T0_ES7_RNSt7__cxx1112basic_stringIS4_S5_T1_EE
.LEHE26:
	leaq	704(%rsp), %r12
	movq	%r12, %rcx
	call	_ZNSt8ios_baseC2Ev
	movq	104(%rsp), %rax
	pxor	%xmm0, %xmm0
	xorl	%edx, %edx
	movq	.refptr._ZTTSt13basic_fstreamIcSt11char_traitsIcEE(%rip), %rsi
	xorl	%r8d, %r8d
	movups	%xmm0, 936(%rsp)
	movw	%r8w, 928(%rsp)
	movq	16(%rsi), %rdi
	movups	%xmm0, 952(%rsp)
	movq	24(%rsi), %r13
	movq	%rax, 704(%rsp)
	movq	-24(%rdi), %rax
	movq	%rdi, 480(%rsp)
	movq	$0, 920(%rsp)
	movq	%r13, 480(%rsp,%rax)
	movq	$0, 488(%rsp)
	movq	-24(%rdi), %rcx
	addq	%r14, %rcx
.LEHB27:
	call	_ZNSt9basic_iosIcSt11char_traitsIcEE4initEPSt15basic_streambufIcS1_E
.LEHE27:
	movq	32(%rsi), %rax
	movq	88(%rsp), %rcx
	xorl	%edx, %edx
	movq	%rax, 496(%rsp)
	addq	-24(%rax), %rcx
	movq	40(%rsi), %rax
	movq	%rax, (%rcx)
.LEHB28:
	call	_ZNSt9basic_iosIcSt11char_traitsIcEE4initEPSt15basic_streambufIcS1_E
.LEHE28:
	movq	8(%rsi), %rax
	movq	48(%rsi), %rdx
	leaq	504(%rsp), %rdi
	movq	%rdi, %rcx
	movq	-24(%rax), %rax
	movq	%rdx, 480(%rsp,%rax)
	movq	.refptr._ZTVSt13basic_fstreamIcSt11char_traitsIcEE(%rip), %rax
	leaq	24(%rax), %rdx
	movq	%rdx, 480(%rsp)
	leaq	104(%rax), %rdx
	addq	$64, %rax
	movq	%rdx, 704(%rsp)
	movq	%rax, 496(%rsp)
.LEHB29:
	call	_ZNSt13basic_filebufIcSt11char_traitsIcEEC1Ev
.LEHE29:
	movq	%rdi, %rdx
	movq	%r12, %rcx
.LEHB30:
	call	_ZNSt9basic_iosIcSt11char_traitsIcEE4initEPSt15basic_streambufIcS1_E
	movq	192(%rsp), %rdx
	movl	$24, %r8d
	movq	%rdi, %rcx
	call	_ZNSt13basic_filebufIcSt11char_traitsIcEE4openEPKcSt13_Ios_Openmode
	movq	480(%rsp), %rdx
	movq	-24(%rdx), %rcx
	addq	%r14, %rcx
	testq	%rax, %rax
	je	.L504
	xorl	%edx, %edx
	call	_ZNSt9basic_iosIcSt11char_traitsIcEE5clearESt12_Ios_Iostate
.LEHE30:
.L333:
	movl	736(%rsp), %eax
	testb	$5, %al
	je	.L505
	movq	.refptr._ZSt4cerr(%rip), %rcx
	leaq	.LC9(%rip), %rdx
.LEHB31:
	call	_ZStlsISt11char_traitsIcEERSt13basic_ostreamIcT_ES5_PKc
.LEHE31:
	movq	%r14, %rcx
	call	_ZNSt13basic_fstreamIcSt11char_traitsIcEED1Ev
	movq	96(%rsp), %rcx
	call	_ZNSt7__cxx1112basic_stringIcSt11char_traitsIcESaIcEE10_M_disposeEv
	movq	160(%rsp), %rcx
	cmpq	%r15, %rcx
	jne	.L496
	jmp	.L364
.L365:
	movq	448(%rsp), %rcx
	call	_ZNSt8_Rb_treeINSt7__cxx1112basic_stringIcSt11char_traitsIcESaIcEEESt4pairIKS5_St8functionIFS5_S5_EEESt10_Select1stISB_ESt4lessIS5_ESaISB_EE8_M_eraseEPSt13_Rb_tree_nodeISB_E.isra.0
	movq	400(%rsp), %rcx
	call	_ZNSt8_Rb_treeINSt7__cxx1112basic_stringIcSt11char_traitsIcESaIcEEESt4pairIKS5_St8functionIFyyEEESt10_Select1stISB_ESt4lessIS5_ESaISB_EE8_M_eraseEPSt13_Rb_tree_nodeISB_E.isra.0
	nop
	movaps	976(%rsp), %xmm6
	xorl	%eax, %eax
	addq	$1000, %rsp
	popq	%rbx
	popq	%rsi
	popq	%rdi
	popq	%rbp
	popq	%r12
	popq	%r13
	popq	%r14
	popq	%r15
	ret
.L500:
	movq	8(%rbx), %rsi
	movq	40(%rbp), %r13
	cmpq	%r13, %rsi
	movq	%r13, %r8
	cmovbe	%rsi, %r8
	testq	%r8, %r8
	je	.L303
	movq	32(%rbp), %rdx
	movq	(%rbx), %rcx
	call	memcmp
	testl	%eax, %eax
	jne	.L304
.L303:
	subq	%r13, %rsi
	cmpq	$2147483647, %rsi
	jg	.L302
	cmpq	$-2147483648, %rsi
	jl	.L382
	movl	%esi, %eax
.L304:
	shrl	$31, %eax
	movl	%eax, %edi
	jmp	.L302
.L505:
	leaq	240(%rsp), %rdi
	xorl	%edx, %edx
	leaq	159(%rsp), %rsi
	andl	$-4097, 728(%rsp)
	movq	%rdi, 80(%rsp)
	leaq	352(%rsp), %r13
	leaq	368(%rsp), %r12
	movq	%rdi, 224(%rsp)
	movq	%rdx, 232(%rsp)
	movb	$0, 240(%rsp)
	movq	%rsi, 72(%rsp)
	testb	$2, %al
	je	.L341
	jmp	.L353
	.p2align 4,,10
	.p2align 3
.L346:
	movq	352(%rsp), %rdx
	cmpq	%r12, %rdx
	je	.L375
	movq	240(%rsp), %rcx
	movq	%rdx, 224(%rsp)
	movdqu	360(%rsp), %xmm2
	movups	%xmm2, 232(%rsp)
	testq	%rax, %rax
	je	.L351
	movq	%rax, 352(%rsp)
	movq	%rcx, 368(%rsp)
.L350:
	movq	$0, 360(%rsp)
	movb	$0, (%rax)
	movq	352(%rsp), %rcx
	cmpq	%r12, %rcx
	je	.L352
	movq	368(%rsp), %rax
	leaq	1(%rax), %rdx
	call	_ZdlPvy
.L352:
	testb	$2, 736(%rsp)
	jne	.L353
.L341:
	movq	72(%rsp), %rdx
	movq	%r14, %rcx
.LEHB32:
	call	_ZStrsIcSt11char_traitsIcEERSt13basic_istreamIT_T0_ES6_RS3_
	movq	224(%rsp), %rdx
	movq	232(%rsp), %r8
	movq	%r13, %rcx
	movq	%r12, 352(%rsp)
	movsbl	159(%rsp), %esi
	addq	%rdx, %r8
	call	_ZNSt7__cxx1112basic_stringIcSt11char_traitsIcESaIcEE12_M_constructIPcEEvT_S7_St20forward_iterator_tag.isra.0
.LEHE32:
	movl	%esi, 32(%rsp)
	movl	$1, %r9d
	xorl	%r8d, %r8d
	movq	%r13, %rcx
	movq	360(%rsp), %rdx
.LEHB33:
	call	_ZNSt7__cxx1112basic_stringIcSt11char_traitsIcESaIcEE14_M_replace_auxEyyyc
.LEHE33:
	movq	224(%rsp), %rax
	movq	80(%rsp), %rdi
	movq	%rax, %r8
	cmpq	%rdi, %rax
	jne	.L346
	movq	352(%rsp), %rax
	cmpq	%r12, %rax
	je	.L375
	movdqu	360(%rsp), %xmm5
	movq	%rax, 224(%rsp)
	movups	%xmm5, 232(%rsp)
.L351:
	movq	%r12, 352(%rsp)
	movq	%r12, %rax
	jmp	.L350
.L375:
	movq	360(%rsp), %rcx
	testq	%rcx, %rcx
	je	.L348
	cmpq	$1, %rcx
	je	.L506
	movq	%r8, %rdi
	movl	%ecx, %ecx
	movq	%r12, %rsi
	rep movsb
	movq	360(%rsp), %rcx
	movq	224(%rsp), %r8
.L348:
	movq	%rcx, 232(%rsp)
	movb	$0, (%r8,%rcx)
	movq	352(%rsp), %rax
	jmp	.L350
.L353:
	movq	%r14, %rcx
.LEHB34:
	call	_ZNSt13basic_fstreamIcSt11char_traitsIcEE5closeEv
.LEHE34:
	movq	48(%rsp), %rcx
	movq	%rbp, %rdx
	leaq	288(%rsp), %r13
	movq	%r13, %rdi
	call	_ZNSt8_Rb_treeINSt7__cxx1112basic_stringIcSt11char_traitsIcESaIcEEESt4pairIKS5_St8functionIFS5_S5_EEESt10_Select1stISB_ESt4lessIS5_ESaISB_EE4findERS7_
	movl	$6, %ecx
	movq	%rax, %rsi
	xorl	%eax, %eax
	rep stosl
	xorl	%eax, %eax
	movq	%rax, 312(%rsp)
	movq	80(%rsi), %rax
	testq	%rax, %rax
	je	.L354
	leaq	64(%rsi), %rdx
	movl	$2, %r8d
	movq	%r13, %rcx
.LEHB35:
	call	*%rax
.LEHE35:
	movdqu	80(%rsi), %xmm4
	movaps	%xmm4, 304(%rsp)
.L354:
	leaq	256(%rsp), %rax
	leaq	224(%rsp), %r12
	movq	%r12, %rdx
	movq	%rax, %rcx
	movq	%rax, 72(%rsp)
.LEHB36:
	call	_ZNSt7__cxx1112basic_stringIcSt11char_traitsIcESaIcEEC1ERKS4_
.LEHE36:
	call	clock
	movq	256(%rsp), %rdx
	movq	264(%rsp), %r8
	leaq	352(%rsp), %rsi
	leaq	368(%rsp), %rdi
	movq	%rsi, %rcx
	movl	%eax, 80(%rsp)
	addq	%rdx, %r8
	movq	%rdi, 352(%rsp)
.LEHB37:
	call	_ZNSt7__cxx1112basic_stringIcSt11char_traitsIcESaIcEE12_M_constructIPcEEvT_S7_St20forward_iterator_tag.isra.0
.LEHE37:
	cmpq	$0, 304(%rsp)
	je	.L507
	leaq	320(%rsp), %rax
	movq	%rsi, %r8
	movq	%r13, %rdx
	movq	%rax, 112(%rsp)
	movq	%rax, %rcx
.LEHB38:
	call	*312(%rsp)
.LEHE38:
	movq	352(%rsp), %rcx
	cmpq	%rdi, %rcx
	je	.L358
	movq	368(%rsp), %rax
	leaq	1(%rax), %rdx
	call	_ZdlPvy
.L358:
	call	clock
	movq	.refptr._ZSt4cout(%rip), %rcx
	movl	$6, %r8d
	leaq	.LC4(%rip), %rdx
	movl	%eax, %esi
.LEHB39:
	call	_ZSt16__ostream_insertIcSt11char_traitsIcEERSt13basic_ostreamIT_T0_ES6_PKS3_x
	movq	.refptr._ZSt4cout(%rip), %rax
	movq	.refptr._ZSt4cout(%rip), %rdx
	pxor	%xmm1, %xmm1
	movq	.refptr._ZSt4cout(%rip), %rcx
	movq	(%rax), %rax
	addq	-24(%rax), %rdx
	movl	24(%rdx), %eax
	movq	$6, 8(%rdx)
	andl	$-261, %eax
	orl	$4, %eax
	movl	%eax, 24(%rdx)
	movl	80(%rsp), %eax
	subl	%eax, %esi
	cvtsi2sdl	%esi, %xmm1
	divsd	.LC5(%rip), %xmm1
	call	_ZNSo9_M_insertIdEERSoT_
	leaq	.LC6(%rip), %rdi
	movq	%rax, %rcx
	movl	$1, %r8d
	movq	%rdi, %rdx
	call	_ZSt16__ostream_insertIcSt11char_traitsIcEERSt13basic_ostreamIT_T0_ES6_PKS3_x
	movq	.refptr._ZSt4cout(%rip), %rcx
	movl	$8, %r8d
	leaq	.LC7(%rip), %rdx
	call	_ZSt16__ostream_insertIcSt11char_traitsIcEERSt13basic_ostreamIT_T0_ES6_PKS3_x
	movq	328(%rsp), %r8
	movq	320(%rsp), %rdx
	movq	.refptr._ZSt4cout(%rip), %rcx
	call	_ZSt16__ostream_insertIcSt11char_traitsIcEERSt13basic_ostreamIT_T0_ES6_PKS3_x
	movq	%rax, %rcx
	movl	$1, %r8d
	movq	%rdi, %rdx
	call	_ZSt16__ostream_insertIcSt11char_traitsIcEERSt13basic_ostreamIT_T0_ES6_PKS3_x
.LEHE39:
	movq	320(%rsp), %rcx
	leaq	336(%rsp), %rax
	cmpq	%rax, %rcx
	je	.L359
	movq	336(%rsp), %rax
	leaq	1(%rax), %rdx
	call	_ZdlPvy
.L359:
	movq	72(%rsp), %rcx
	call	_ZNSt7__cxx1112basic_stringIcSt11char_traitsIcESaIcEE10_M_disposeEv
	movq	%r13, %rcx
	call	_ZNSt14_Function_baseD2Ev
	movq	%r12, %rcx
	call	_ZNSt7__cxx1112basic_stringIcSt11char_traitsIcESaIcEE10_M_disposeEv
	movq	%r14, %rcx
	call	_ZNSt13basic_fstreamIcSt11char_traitsIcEED1Ev
	movq	96(%rsp), %rcx
	call	_ZNSt7__cxx1112basic_stringIcSt11char_traitsIcESaIcEE10_M_disposeEv
	jmp	.L327
.L328:
	movq	.refptr._ZSt4cout(%rip), %rcx
	leaq	.LC10(%rip), %rdx
.LEHB40:
	call	_ZStlsISt11char_traitsIcEERSt13basic_ostreamIcT_ES5_PKc
.LEHE40:
	jmp	.L327
.L504:
	movl	32(%rcx), %edx
	orl	$4, %edx
.LEHB41:
	call	_ZNSt9basic_iosIcSt11char_traitsIcEE5clearESt12_Ios_Iostate
.LEHE41:
	jmp	.L333
.L506:
	movzbl	368(%rsp), %eax
	movb	%al, (%r8)
	movq	360(%rsp), %rcx
	movq	224(%rsp), %r8
	jmp	.L348
.L379:
	movl	$1, %edi
	jmp	.L279
.L382:
	movl	$1, %edi
	jmp	.L302
.L502:
.LEHB42:
	call	_ZSt16__throw_bad_castv
.LEHE42:
.L501:
.LEHB43:
	call	_ZSt25__throw_bad_function_callv
.LEHE43:
.L507:
.LEHB44:
	call	_ZSt25__throw_bad_function_callv
.LEHE44:
.L395:
	leaq	768(%rsp), %rcx
	movq	%rax, %rsi
	call	_ZNSt14_Function_baseD2Ev
	movq	%rbx, %rcx
	movq	%rsi, %rbx
	call	_ZNSt7__cxx1112basic_stringIcSt11char_traitsIcESaIcEE10_M_disposeEv
	movl	$1, %eax
.L261:
	movl	$5, %esi
	subq	%rax, %rsi
	salq	$6, %rsi
	addq	%r14, %rsi
.L367:
	cmpq	%r14, %rsi
	je	.L498
	subq	$64, %rsi
	leaq	32(%rsi), %rcx
	call	_ZNSt14_Function_baseD2Ev
	movq	%rsi, %rcx
	call	_ZNSt7__cxx1112basic_stringIcSt11char_traitsIcESaIcEE10_M_disposeEv
	jmp	.L367
.L419:
	movq	%rax, %rbx
	movl	$1, %eax
	jmp	.L261
.L414:
	movq	%rax, %rbx
	movl	$4, %eax
	jmp	.L261
.L391:
	movq	%rax, %rbx
	leaq	224(%rsp), %r12
.L345:
	movq	%r12, %rcx
	call	_ZNSt7__cxx1112basic_stringIcSt11char_traitsIcESaIcEE10_M_disposeEv
.L373:
	movq	%r14, %rcx
	call	_ZNSt13basic_fstreamIcSt11char_traitsIcEED1Ev
.L338:
	movq	96(%rsp), %rcx
	call	_ZNSt7__cxx1112basic_stringIcSt11char_traitsIcESaIcEE10_M_disposeEv
.L325:
	movq	%rbp, %rcx
	call	_ZNSt7__cxx1112basic_stringIcSt11char_traitsIcESaIcEE10_M_disposeEv
.L374:
	movq	448(%rsp), %rcx
	call	_ZNSt8_Rb_treeINSt7__cxx1112basic_stringIcSt11char_traitsIcESaIcEEESt4pairIKS5_St8functionIFS5_S5_EEESt10_Select1stISB_ESt4lessIS5_ESaISB_EE8_M_eraseEPSt13_Rb_tree_nodeISB_E.isra.0
.L370:
	movq	400(%rsp), %rcx
	call	_ZNSt8_Rb_treeINSt7__cxx1112basic_stringIcSt11char_traitsIcESaIcEEESt4pairIKS5_St8functionIFyyEEESt10_Select1stISB_ESt4lessIS5_ESaISB_EE8_M_eraseEPSt13_Rb_tree_nodeISB_E.isra.0
.L498:
	movq	%rbx, %rcx
.LEHB45:
	call	_Unwind_Resume
.LEHE45:
.L410:
	movq	%r13, %rcx
	movq	%rax, %rbx
	leaq	224(%rsp), %r12
	call	_ZNSt7__cxx1112basic_stringIcSt11char_traitsIcESaIcEE10_M_disposeEv
	jmp	.L345
.L388:
.L497:
	movq	%r14, %rcx
	movq	%rax, %rbx
	call	_ZNSt14_Function_baseD2Ev
	jmp	.L325
.L389:
	movq	%rax, %rbx
	jmp	.L338
.L406:
	movq	%rax, %rbx
.L331:
	movq	.refptr._ZTVSt9basic_iosIcSt11char_traitsIcEE(%rip), %rax
	movq	%r12, %rcx
	addq	$16, %rax
	movq	%rax, 704(%rsp)
	call	_ZNSt8ios_baseD2Ev
	jmp	.L338
.L409:
	movq	%rax, %rbx
	movq	-24(%rdi), %rax
	xorl	%ecx, %ecx
	movq	%rdi, 480(%rsp)
	movq	%r13, 480(%rsp,%rax)
	movq	%rcx, 488(%rsp)
	jmp	.L331
.L407:
	movq	%rax, %rbx
.L337:
	leaq	8(%rsi), %rdx
	movq	%r14, %rcx
	call	_ZNSdD2Ev
	jmp	.L331
.L408:
	movq	%rdi, %rcx
	movq	%rax, %rbx
	call	_ZNSt13basic_filebufIcSt11char_traitsIcEED1Ev
	jmp	.L337
.L390:
	movq	%rax, %rbx
	jmp	.L373
.L386:
	movq	%rax, %rbx
	jmp	.L374
.L401:
	movq	%rax, %rbx
.L309:
	movq	448(%rsp), %rcx
	call	_ZNSt8_Rb_treeINSt7__cxx1112basic_stringIcSt11char_traitsIcESaIcEEESt4pairIKS5_St8functionIFS5_S5_EEESt10_Select1stISB_ESt4lessIS5_ESaISB_EE8_M_eraseEPSt13_Rb_tree_nodeISB_E.isra.0
	movq	72(%rsp), %rsi
.L312:
	subq	$64, %rsi
	leaq	32(%rsi), %rcx
	call	_ZNSt14_Function_baseD2Ev
	movq	%rsi, %rcx
	call	_ZNSt7__cxx1112basic_stringIcSt11char_traitsIcESaIcEE10_M_disposeEv
	cmpq	%r14, %rsi
	jne	.L312
	movl	$2, %eax
.L295:
	movl	$2, %esi
	subq	%rax, %rsi
	salq	$6, %rsi
	addq	%r14, %rsi
.L369:
	cmpq	%r14, %rsi
	je	.L370
	subq	$64, %rsi
	leaq	32(%rsi), %rcx
	call	_ZNSt14_Function_baseD2Ev
	movq	%rsi, %rcx
	call	_ZNSt7__cxx1112basic_stringIcSt11char_traitsIcESaIcEE10_M_disposeEv
	jmp	.L369
.L416:
	movq	%rax, %rbx
	movl	$5, %eax
	jmp	.L261
.L396:
	movq	%rax, %rbx
.L286:
	movq	400(%rsp), %rcx
	call	_ZNSt8_Rb_treeINSt7__cxx1112basic_stringIcSt11char_traitsIcESaIcEEESt4pairIKS5_St8functionIFyyEEESt10_Select1stISB_ESt4lessIS5_ESaISB_EE8_M_eraseEPSt13_Rb_tree_nodeISB_E.isra.0
.L289:
	subq	$64, %r12
	leaq	32(%r12), %rcx
	call	_ZNSt14_Function_baseD2Ev
	movq	%r12, %rcx
	call	_ZNSt7__cxx1112basic_stringIcSt11char_traitsIcESaIcEE10_M_disposeEv
	cmpq	%r14, %r12
	jne	.L289
	movl	$5, %eax
	jmp	.L261
.L385:
	movq	%rax, %rbx
	xorl	%eax, %eax
	jmp	.L295
.L397:
	movq	%rax, %rcx
.L284:
	call	__cxa_begin_catch
	movl	$96, %edx
	movq	%rsi, %rcx
	call	_ZdlPvy
.LEHB46:
	call	__cxa_rethrow
.LEHE46:
.L398:
	movq	%rax, %rbx
	call	__cxa_end_catch
	jmp	.L286
.L400:
	leaq	576(%rsp), %rcx
	movq	%rax, %rbx
	call	_ZNSt14_Function_baseD2Ev
	movq	120(%rsp), %rcx
	call	_ZNSt7__cxx1112basic_stringIcSt11char_traitsIcESaIcEE10_M_disposeEv
	movl	$1, %eax
	jmp	.L295
.L404:
	movq	%r15, %rcx
	movq	%rax, %rbx
	call	_ZNSt14_Function_baseD2Ev
	movq	%r13, %rcx
	call	_ZNSt7__cxx1112basic_stringIcSt11char_traitsIcESaIcEE10_M_disposeEv
	movq	%rbx, %rcx
.L307:
	call	__cxa_begin_catch
	movl	$96, %edx
	movq	%rsi, %rcx
	call	_ZdlPvy
.LEHB47:
	call	__cxa_rethrow
.LEHE47:
.L402:
	movq	%rax, %rcx
	jmp	.L307
.L413:
	movq	%rsi, %rcx
	movq	%rax, %rbx
	call	_ZNSt7__cxx1112basic_stringIcSt11char_traitsIcESaIcEE10_M_disposeEv
.L361:
	movq	72(%rsp), %rcx
	call	_ZNSt7__cxx1112basic_stringIcSt11char_traitsIcESaIcEE10_M_disposeEv
.L372:
	movq	%r13, %rcx
	call	_ZNSt14_Function_baseD2Ev
	jmp	.L345
.L412:
	movq	112(%rsp), %rcx
	movq	%rax, %rbx
	call	_ZNSt7__cxx1112basic_stringIcSt11char_traitsIcESaIcEE10_M_disposeEv
	jmp	.L361
.L399:
	movq	80(%rsp), %rcx
	movq	%rax, %rbx
	call	_ZNSt14_Function_baseD2Ev
	movq	%r13, %rcx
	call	_ZNSt7__cxx1112basic_stringIcSt11char_traitsIcESaIcEE10_M_disposeEv
	movq	%rbx, %rcx
	jmp	.L284
.L411:
	movq	%r13, %rcx
	movq	%rax, %rbx
	leaq	224(%rsp), %r12
	call	_ZNSt14_Function_baseD2Ev
	jmp	.L345
.L415:
	movq	%rax, %rbx
	xorl	%eax, %eax
	jmp	.L261
.L403:
	movq	%rax, %rbx
	call	__cxa_end_catch
	jmp	.L309
.L392:
	movq	%rax, %rbx
	jmp	.L372
.L405:
	jmp	.L497
.L387:
	movq	%rax, %rbx
	jmp	.L325
.L393:
	movq	%rax, %rbx
	jmp	.L361
.L417:
	movq	%rax, %rbx
	movl	$3, %eax
	jmp	.L261
.L394:
	leaq	576(%rsp), %rcx
	movq	%rax, %rbx
	call	_ZNSt14_Function_baseD2Ev
	movq	120(%rsp), %rcx
	call	_ZNSt7__cxx1112basic_stringIcSt11char_traitsIcESaIcEE10_M_disposeEv
	movl	$4, %eax
	jmp	.L261
.L418:
	movq	%rax, %rbx
	movl	$2, %eax
	jmp	.L261
	.seh_handler	__gxx_personality_seh0, @unwind, @except
	.seh_handlerdata
	.align 4
.LLSDA3999:
	.byte	0xff
	.byte	0x9b
	.uleb128 .LLSDATT3999-.LLSDATTD3999
.LLSDATTD3999:
	.byte	0x1
	.uleb128 .LLSDACSE3999-.LLSDACSB3999
.LLSDACSB3999:
	.uleb128 .LEHB5-.LFB3999
	.uleb128 .LEHE5-.LEHB5
	.uleb128 .L416-.LFB3999
	.uleb128 0
	.uleb128 .LEHB6-.LFB3999
	.uleb128 .LEHE6-.LEHB6
	.uleb128 .L414-.LFB3999
	.uleb128 0
	.uleb128 .LEHB7-.LFB3999
	.uleb128 .LEHE7-.LEHB7
	.uleb128 .L394-.LFB3999
	.uleb128 0
	.uleb128 .LEHB8-.LFB3999
	.uleb128 .LEHE8-.LEHB8
	.uleb128 .L417-.LFB3999
	.uleb128 0
	.uleb128 .LEHB9-.LFB3999
	.uleb128 .LEHE9-.LEHB9
	.uleb128 .L418-.LFB3999
	.uleb128 0
	.uleb128 .LEHB10-.LFB3999
	.uleb128 .LEHE10-.LEHB10
	.uleb128 .L419-.LFB3999
	.uleb128 0
	.uleb128 .LEHB11-.LFB3999
	.uleb128 .LEHE11-.LEHB11
	.uleb128 .L395-.LFB3999
	.uleb128 0
	.uleb128 .LEHB12-.LFB3999
	.uleb128 .LEHE12-.LEHB12
	.uleb128 .L415-.LFB3999
	.uleb128 0
	.uleb128 .LEHB13-.LFB3999
	.uleb128 .LEHE13-.LEHB13
	.uleb128 .L396-.LFB3999
	.uleb128 0
	.uleb128 .LEHB14-.LFB3999
	.uleb128 .LEHE14-.LEHB14
	.uleb128 .L397-.LFB3999
	.uleb128 0x1
	.uleb128 .LEHB15-.LFB3999
	.uleb128 .LEHE15-.LEHB15
	.uleb128 .L399-.LFB3999
	.uleb128 0x1
	.uleb128 .LEHB16-.LFB3999
	.uleb128 .LEHE16-.LEHB16
	.uleb128 .L400-.LFB3999
	.uleb128 0
	.uleb128 .LEHB17-.LFB3999
	.uleb128 .LEHE17-.LEHB17
	.uleb128 .L385-.LFB3999
	.uleb128 0
	.uleb128 .LEHB18-.LFB3999
	.uleb128 .LEHE18-.LEHB18
	.uleb128 .L401-.LFB3999
	.uleb128 0
	.uleb128 .LEHB19-.LFB3999
	.uleb128 .LEHE19-.LEHB19
	.uleb128 .L402-.LFB3999
	.uleb128 0x1
	.uleb128 .LEHB20-.LFB3999
	.uleb128 .LEHE20-.LEHB20
	.uleb128 .L404-.LFB3999
	.uleb128 0x1
	.uleb128 .LEHB21-.LFB3999
	.uleb128 .LEHE21-.LEHB21
	.uleb128 .L387-.LFB3999
	.uleb128 0
	.uleb128 .LEHB22-.LFB3999
	.uleb128 .LEHE22-.LEHB22
	.uleb128 .L405-.LFB3999
	.uleb128 0
	.uleb128 .LEHB23-.LFB3999
	.uleb128 .LEHE23-.LEHB23
	.uleb128 .L388-.LFB3999
	.uleb128 0
	.uleb128 .LEHB24-.LFB3999
	.uleb128 .LEHE24-.LEHB24
	.uleb128 .L386-.LFB3999
	.uleb128 0
	.uleb128 .LEHB25-.LFB3999
	.uleb128 .LEHE25-.LEHB25
	.uleb128 .L387-.LFB3999
	.uleb128 0
	.uleb128 .LEHB26-.LFB3999
	.uleb128 .LEHE26-.LEHB26
	.uleb128 .L389-.LFB3999
	.uleb128 0
	.uleb128 .LEHB27-.LFB3999
	.uleb128 .LEHE27-.LEHB27
	.uleb128 .L406-.LFB3999
	.uleb128 0
	.uleb128 .LEHB28-.LFB3999
	.uleb128 .LEHE28-.LEHB28
	.uleb128 .L409-.LFB3999
	.uleb128 0
	.uleb128 .LEHB29-.LFB3999
	.uleb128 .LEHE29-.LEHB29
	.uleb128 .L407-.LFB3999
	.uleb128 0
	.uleb128 .LEHB30-.LFB3999
	.uleb128 .LEHE30-.LEHB30
	.uleb128 .L408-.LFB3999
	.uleb128 0
	.uleb128 .LEHB31-.LFB3999
	.uleb128 .LEHE31-.LEHB31
	.uleb128 .L390-.LFB3999
	.uleb128 0
	.uleb128 .LEHB32-.LFB3999
	.uleb128 .LEHE32-.LEHB32
	.uleb128 .L391-.LFB3999
	.uleb128 0
	.uleb128 .LEHB33-.LFB3999
	.uleb128 .LEHE33-.LEHB33
	.uleb128 .L410-.LFB3999
	.uleb128 0
	.uleb128 .LEHB34-.LFB3999
	.uleb128 .LEHE34-.LEHB34
	.uleb128 .L391-.LFB3999
	.uleb128 0
	.uleb128 .LEHB35-.LFB3999
	.uleb128 .LEHE35-.LEHB35
	.uleb128 .L411-.LFB3999
	.uleb128 0
	.uleb128 .LEHB36-.LFB3999
	.uleb128 .LEHE36-.LEHB36
	.uleb128 .L392-.LFB3999
	.uleb128 0
	.uleb128 .LEHB37-.LFB3999
	.uleb128 .LEHE37-.LEHB37
	.uleb128 .L393-.LFB3999
	.uleb128 0
	.uleb128 .LEHB38-.LFB3999
	.uleb128 .LEHE38-.LEHB38
	.uleb128 .L413-.LFB3999
	.uleb128 0
	.uleb128 .LEHB39-.LFB3999
	.uleb128 .LEHE39-.LEHB39
	.uleb128 .L412-.LFB3999
	.uleb128 0
	.uleb128 .LEHB40-.LFB3999
	.uleb128 .LEHE40-.LEHB40
	.uleb128 .L387-.LFB3999
	.uleb128 0
	.uleb128 .LEHB41-.LFB3999
	.uleb128 .LEHE41-.LEHB41
	.uleb128 .L408-.LFB3999
	.uleb128 0
	.uleb128 .LEHB42-.LFB3999
	.uleb128 .LEHE42-.LEHB42
	.uleb128 .L387-.LFB3999
	.uleb128 0
	.uleb128 .LEHB43-.LFB3999
	.uleb128 .LEHE43-.LEHB43
	.uleb128 .L388-.LFB3999
	.uleb128 0
	.uleb128 .LEHB44-.LFB3999
	.uleb128 .LEHE44-.LEHB44
	.uleb128 .L413-.LFB3999
	.uleb128 0
	.uleb128 .LEHB45-.LFB3999
	.uleb128 .LEHE45-.LEHB45
	.uleb128 0
	.uleb128 0
	.uleb128 .LEHB46-.LFB3999
	.uleb128 .LEHE46-.LEHB46
	.uleb128 .L398-.LFB3999
	.uleb128 0
	.uleb128 .LEHB47-.LFB3999
	.uleb128 .LEHE47-.LEHB47
	.uleb128 .L403-.LFB3999
	.uleb128 0
.LLSDACSE3999:
	.byte	0x1
	.byte	0
	.align 4
	.long	0

.LLSDATT3999:
	.section	.text.startup,"x"
	.seh_endproc
	.p2align 4
	.def	_GLOBAL__sub_I_main;	.scl	3;	.type	32;	.endef
	.seh_proc	_GLOBAL__sub_I_main
_GLOBAL__sub_I_main:
.LFB5401:
	subq	$40, %rsp
	.seh_stackalloc	40
	.seh_endprologue
	leaq	_ZStL8__ioinit(%rip), %rcx
	call	_ZNSt8ios_base4InitC1Ev
	leaq	__tcf_0(%rip), %rcx
	addq	$40, %rsp
	jmp	atexit
	.seh_endproc
	.section	.ctors,"w"
	.align 8
	.quad	_GLOBAL__sub_I_main
	.globl	_ZTSSt22_Weak_result_type_implIPFyjyyEE
	.section	.rdata$_ZTSSt22_Weak_result_type_implIPFyjyyEE,"dr"
	.linkonce same_size
	.align 32
_ZTSSt22_Weak_result_type_implIPFyjyyEE:
	.ascii "St22_Weak_result_type_implIPFyjyyEE\0"
	.globl	_ZTISt22_Weak_result_type_implIPFyjyyEE
	.section	.rdata$_ZTISt22_Weak_result_type_implIPFyjyyEE,"dr"
	.linkonce same_size
	.align 8
_ZTISt22_Weak_result_type_implIPFyjyyEE:
	.quad	_ZTVN10__cxxabiv117__class_type_infoE+16
	.quad	_ZTSSt22_Weak_result_type_implIPFyjyyEE
	.globl	_ZTSSt22_Weak_result_type_implIPFyyyEE
	.section	.rdata$_ZTSSt22_Weak_result_type_implIPFyyyEE,"dr"
	.linkonce same_size
	.align 32
_ZTSSt22_Weak_result_type_implIPFyyyEE:
	.ascii "St22_Weak_result_type_implIPFyyyEE\0"
	.globl	_ZTISt22_Weak_result_type_implIPFyyyEE
	.section	.rdata$_ZTISt22_Weak_result_type_implIPFyyyEE,"dr"
	.linkonce same_size
	.align 8
_ZTISt22_Weak_result_type_implIPFyyyEE:
	.quad	_ZTVN10__cxxabiv117__class_type_infoE+16
	.quad	_ZTSSt22_Weak_result_type_implIPFyyyEE
	.globl	_ZTSSt22_Weak_result_type_implIPFNSt7__cxx1112basic_stringIcSt11char_traitsIcESaIcEEES5_S5_EE
	.section	.rdata$_ZTSSt22_Weak_result_type_implIPFNSt7__cxx1112basic_stringIcSt11char_traitsIcESaIcEEES5_S5_EE,"dr"
	.linkonce same_size
	.align 32
_ZTSSt22_Weak_result_type_implIPFNSt7__cxx1112basic_stringIcSt11char_traitsIcESaIcEEES5_S5_EE:
	.ascii "St22_Weak_result_type_implIPFNSt7__cxx1112basic_stringIcSt11char_traitsIcESaIcEEES5_S5_EE\0"
	.globl	_ZTISt22_Weak_result_type_implIPFNSt7__cxx1112basic_stringIcSt11char_traitsIcESaIcEEES5_S5_EE
	.section	.rdata$_ZTISt22_Weak_result_type_implIPFNSt7__cxx1112basic_stringIcSt11char_traitsIcESaIcEEES5_S5_EE,"dr"
	.linkonce same_size
	.align 8
_ZTISt22_Weak_result_type_implIPFNSt7__cxx1112basic_stringIcSt11char_traitsIcESaIcEEES5_S5_EE:
	.quad	_ZTVN10__cxxabiv117__class_type_infoE+16
	.quad	_ZTSSt22_Weak_result_type_implIPFNSt7__cxx1112basic_stringIcSt11char_traitsIcESaIcEEES5_S5_EE
	.globl	_ZTSSt24_Weak_result_type_memfunIPFyjyyELb0EE
	.section	.rdata$_ZTSSt24_Weak_result_type_memfunIPFyjyyELb0EE,"dr"
	.linkonce same_size
	.align 32
_ZTSSt24_Weak_result_type_memfunIPFyjyyELb0EE:
	.ascii "St24_Weak_result_type_memfunIPFyjyyELb0EE\0"
	.globl	_ZTISt24_Weak_result_type_memfunIPFyjyyELb0EE
	.section	.rdata$_ZTISt24_Weak_result_type_memfunIPFyjyyELb0EE,"dr"
	.linkonce same_size
	.align 8
_ZTISt24_Weak_result_type_memfunIPFyjyyELb0EE:
	.quad	_ZTVN10__cxxabiv120__si_class_type_infoE+16
	.quad	_ZTSSt24_Weak_result_type_memfunIPFyjyyELb0EE
	.quad	_ZTISt22_Weak_result_type_implIPFyjyyEE
	.globl	_ZTSSt24_Weak_result_type_memfunIPFyyyELb0EE
	.section	.rdata$_ZTSSt24_Weak_result_type_memfunIPFyyyELb0EE,"dr"
	.linkonce same_size
	.align 32
_ZTSSt24_Weak_result_type_memfunIPFyyyELb0EE:
	.ascii "St24_Weak_result_type_memfunIPFyyyELb0EE\0"
	.globl	_ZTISt24_Weak_result_type_memfunIPFyyyELb0EE
	.section	.rdata$_ZTISt24_Weak_result_type_memfunIPFyyyELb0EE,"dr"
	.linkonce same_size
	.align 8
_ZTISt24_Weak_result_type_memfunIPFyyyELb0EE:
	.quad	_ZTVN10__cxxabiv120__si_class_type_infoE+16
	.quad	_ZTSSt24_Weak_result_type_memfunIPFyyyELb0EE
	.quad	_ZTISt22_Weak_result_type_implIPFyyyEE
	.globl	_ZTSSt24_Weak_result_type_memfunIPFNSt7__cxx1112basic_stringIcSt11char_traitsIcESaIcEEES5_S5_ELb0EE
	.section	.rdata$_ZTSSt24_Weak_result_type_memfunIPFNSt7__cxx1112basic_stringIcSt11char_traitsIcESaIcEEES5_S5_ELb0EE,"dr"
	.linkonce same_size
	.align 32
_ZTSSt24_Weak_result_type_memfunIPFNSt7__cxx1112basic_stringIcSt11char_traitsIcESaIcEEES5_S5_ELb0EE:
	.ascii "St24_Weak_result_type_memfunIPFNSt7__cxx1112basic_stringIcSt11char_traitsIcESaIcEEES5_S5_ELb0EE\0"
	.globl	_ZTISt24_Weak_result_type_memfunIPFNSt7__cxx1112basic_stringIcSt11char_traitsIcESaIcEEES5_S5_ELb0EE
	.section	.rdata$_ZTISt24_Weak_result_type_memfunIPFNSt7__cxx1112basic_stringIcSt11char_traitsIcESaIcEEES5_S5_ELb0EE,"dr"
	.linkonce same_size
	.align 8
_ZTISt24_Weak_result_type_memfunIPFNSt7__cxx1112basic_stringIcSt11char_traitsIcESaIcEEES5_S5_ELb0EE:
	.quad	_ZTVN10__cxxabiv120__si_class_type_infoE+16
	.quad	_ZTSSt24_Weak_result_type_memfunIPFNSt7__cxx1112basic_stringIcSt11char_traitsIcESaIcEEES5_S5_ELb0EE
	.quad	_ZTISt22_Weak_result_type_implIPFNSt7__cxx1112basic_stringIcSt11char_traitsIcESaIcEEES5_S5_EE
	.globl	_ZTSFyjE
	.section	.rdata$_ZTSFyjE,"dr"
	.linkonce same_size
_ZTSFyjE:
	.ascii "FyjE\0"
	.globl	_ZTIFyjE
	.section	.rdata$_ZTIFyjE,"dr"
	.linkonce same_size
	.align 8
_ZTIFyjE:
	.quad	_ZTVN10__cxxabiv120__function_type_infoE+16
	.quad	_ZTSFyjE
	.globl	_ZTSFyyE
	.section	.rdata$_ZTSFyyE,"dr"
	.linkonce same_size
_ZTSFyyE:
	.ascii "FyyE\0"
	.globl	_ZTIFyyE
	.section	.rdata$_ZTIFyyE,"dr"
	.linkonce same_size
	.align 8
_ZTIFyyE:
	.quad	_ZTVN10__cxxabiv120__function_type_infoE+16
	.quad	_ZTSFyyE
	.globl	_ZTSFNSt7__cxx1112basic_stringIcSt11char_traitsIcESaIcEEES4_E
	.section	.rdata$_ZTSFNSt7__cxx1112basic_stringIcSt11char_traitsIcESaIcEEES4_E,"dr"
	.linkonce same_size
	.align 32
_ZTSFNSt7__cxx1112basic_stringIcSt11char_traitsIcESaIcEEES4_E:
	.ascii "FNSt7__cxx1112basic_stringIcSt11char_traitsIcESaIcEEES4_E\0"
	.globl	_ZTIFNSt7__cxx1112basic_stringIcSt11char_traitsIcESaIcEEES4_E
	.section	.rdata$_ZTIFNSt7__cxx1112basic_stringIcSt11char_traitsIcESaIcEEES4_E,"dr"
	.linkonce same_size
	.align 8
_ZTIFNSt7__cxx1112basic_stringIcSt11char_traitsIcESaIcEEES4_E:
	.quad	_ZTVN10__cxxabiv120__function_type_infoE+16
	.quad	_ZTSFNSt7__cxx1112basic_stringIcSt11char_traitsIcESaIcEEES4_E
	.globl	_ZTSSt17_Weak_result_typeIPFyjyyEE
	.section	.rdata$_ZTSSt17_Weak_result_typeIPFyjyyEE,"dr"
	.linkonce same_size
	.align 16
_ZTSSt17_Weak_result_typeIPFyjyyEE:
	.ascii "St17_Weak_result_typeIPFyjyyEE\0"
	.globl	_ZTISt17_Weak_result_typeIPFyjyyEE
	.section	.rdata$_ZTISt17_Weak_result_typeIPFyjyyEE,"dr"
	.linkonce same_size
	.align 8
_ZTISt17_Weak_result_typeIPFyjyyEE:
	.quad	_ZTVN10__cxxabiv120__si_class_type_infoE+16
	.quad	_ZTSSt17_Weak_result_typeIPFyjyyEE
	.quad	_ZTISt24_Weak_result_type_memfunIPFyjyyELb0EE
	.globl	_ZTSSt17_Weak_result_typeIPFyyyEE
	.section	.rdata$_ZTSSt17_Weak_result_typeIPFyyyEE,"dr"
	.linkonce same_size
	.align 16
_ZTSSt17_Weak_result_typeIPFyyyEE:
	.ascii "St17_Weak_result_typeIPFyyyEE\0"
	.globl	_ZTISt17_Weak_result_typeIPFyyyEE
	.section	.rdata$_ZTISt17_Weak_result_typeIPFyyyEE,"dr"
	.linkonce same_size
	.align 8
_ZTISt17_Weak_result_typeIPFyyyEE:
	.quad	_ZTVN10__cxxabiv120__si_class_type_infoE+16
	.quad	_ZTSSt17_Weak_result_typeIPFyyyEE
	.quad	_ZTISt24_Weak_result_type_memfunIPFyyyELb0EE
	.globl	_ZTSSt17_Weak_result_typeIPFNSt7__cxx1112basic_stringIcSt11char_traitsIcESaIcEEES5_S5_EE
	.section	.rdata$_ZTSSt17_Weak_result_typeIPFNSt7__cxx1112basic_stringIcSt11char_traitsIcESaIcEEES5_S5_EE,"dr"
	.linkonce same_size
	.align 32
_ZTSSt17_Weak_result_typeIPFNSt7__cxx1112basic_stringIcSt11char_traitsIcESaIcEEES5_S5_EE:
	.ascii "St17_Weak_result_typeIPFNSt7__cxx1112basic_stringIcSt11char_traitsIcESaIcEEES5_S5_EE\0"
	.globl	_ZTISt17_Weak_result_typeIPFNSt7__cxx1112basic_stringIcSt11char_traitsIcESaIcEEES5_S5_EE
	.section	.rdata$_ZTISt17_Weak_result_typeIPFNSt7__cxx1112basic_stringIcSt11char_traitsIcESaIcEEES5_S5_EE,"dr"
	.linkonce same_size
	.align 8
_ZTISt17_Weak_result_typeIPFNSt7__cxx1112basic_stringIcSt11char_traitsIcESaIcEEES5_S5_EE:
	.quad	_ZTVN10__cxxabiv120__si_class_type_infoE+16
	.quad	_ZTSSt17_Weak_result_typeIPFNSt7__cxx1112basic_stringIcSt11char_traitsIcESaIcEEES5_S5_EE
	.quad	_ZTISt24_Weak_result_type_memfunIPFNSt7__cxx1112basic_stringIcSt11char_traitsIcESaIcEEES5_S5_ELb0EE
	.globl	_ZTSPFyjE
	.section	.rdata$_ZTSPFyjE,"dr"
	.linkonce same_size
_ZTSPFyjE:
	.ascii "PFyjE\0"
	.globl	_ZTIPFyjE
	.section	.rdata$_ZTIPFyjE,"dr"
	.linkonce same_size
	.align 8
_ZTIPFyjE:
	.quad	_ZTVN10__cxxabiv119__pointer_type_infoE+16
	.quad	_ZTSPFyjE
	.long	0
	.space 4
	.quad	_ZTIFyjE
	.globl	_ZTSPFyyE
	.section	.rdata$_ZTSPFyyE,"dr"
	.linkonce same_size
_ZTSPFyyE:
	.ascii "PFyyE\0"
	.globl	_ZTIPFyyE
	.section	.rdata$_ZTIPFyyE,"dr"
	.linkonce same_size
	.align 8
_ZTIPFyyE:
	.quad	_ZTVN10__cxxabiv119__pointer_type_infoE+16
	.quad	_ZTSPFyyE
	.long	0
	.space 4
	.quad	_ZTIFyyE
	.globl	_ZTSPFNSt7__cxx1112basic_stringIcSt11char_traitsIcESaIcEEES4_E
	.section	.rdata$_ZTSPFNSt7__cxx1112basic_stringIcSt11char_traitsIcESaIcEEES4_E,"dr"
	.linkonce same_size
	.align 32
_ZTSPFNSt7__cxx1112basic_stringIcSt11char_traitsIcESaIcEEES4_E:
	.ascii "PFNSt7__cxx1112basic_stringIcSt11char_traitsIcESaIcEEES4_E\0"
	.globl	_ZTIPFNSt7__cxx1112basic_stringIcSt11char_traitsIcESaIcEEES4_E
	.section	.rdata$_ZTIPFNSt7__cxx1112basic_stringIcSt11char_traitsIcESaIcEEES4_E,"dr"
	.linkonce same_size
	.align 8
_ZTIPFNSt7__cxx1112basic_stringIcSt11char_traitsIcESaIcEEES4_E:
	.quad	_ZTVN10__cxxabiv119__pointer_type_infoE+16
	.quad	_ZTSPFNSt7__cxx1112basic_stringIcSt11char_traitsIcESaIcEEES4_E
	.long	0
	.space 4
	.quad	_ZTIFNSt7__cxx1112basic_stringIcSt11char_traitsIcESaIcEEES4_E
	.globl	_ZTSSt5_BindIFPFyjyyESt12_PlaceholderILi1EEiiEE
	.section	.rdata$_ZTSSt5_BindIFPFyjyyESt12_PlaceholderILi1EEiiEE,"dr"
	.linkonce same_size
	.align 32
_ZTSSt5_BindIFPFyjyyESt12_PlaceholderILi1EEiiEE:
	.ascii "St5_BindIFPFyjyyESt12_PlaceholderILi1EEiiEE\0"
	.globl	_ZTISt5_BindIFPFyjyyESt12_PlaceholderILi1EEiiEE
	.section	.rdata$_ZTISt5_BindIFPFyjyyESt12_PlaceholderILi1EEiiEE,"dr"
	.linkonce same_size
	.align 8
_ZTISt5_BindIFPFyjyyESt12_PlaceholderILi1EEiiEE:
	.quad	_ZTVN10__cxxabiv120__si_class_type_infoE+16
	.quad	_ZTSSt5_BindIFPFyjyyESt12_PlaceholderILi1EEiiEE
	.quad	_ZTISt17_Weak_result_typeIPFyjyyEE
	.globl	_ZTSSt5_BindIFPFyyyESt12_PlaceholderILi1EEiEE
	.section	.rdata$_ZTSSt5_BindIFPFyyyESt12_PlaceholderILi1EEiEE,"dr"
	.linkonce same_size
	.align 32
_ZTSSt5_BindIFPFyyyESt12_PlaceholderILi1EEiEE:
	.ascii "St5_BindIFPFyyyESt12_PlaceholderILi1EEiEE\0"
	.globl	_ZTISt5_BindIFPFyyyESt12_PlaceholderILi1EEiEE
	.section	.rdata$_ZTISt5_BindIFPFyyyESt12_PlaceholderILi1EEiEE,"dr"
	.linkonce same_size
	.align 8
_ZTISt5_BindIFPFyyyESt12_PlaceholderILi1EEiEE:
	.quad	_ZTVN10__cxxabiv120__si_class_type_infoE+16
	.quad	_ZTSSt5_BindIFPFyyyESt12_PlaceholderILi1EEiEE
	.quad	_ZTISt17_Weak_result_typeIPFyyyEE
	.globl	_ZTSSt5_BindIFPFNSt7__cxx1112basic_stringIcSt11char_traitsIcESaIcEEES5_S5_ESt12_PlaceholderILi1EEPKcEE
	.section	.rdata$_ZTSSt5_BindIFPFNSt7__cxx1112basic_stringIcSt11char_traitsIcESaIcEEES5_S5_ESt12_PlaceholderILi1EEPKcEE,"dr"
	.linkonce same_size
	.align 32
_ZTSSt5_BindIFPFNSt7__cxx1112basic_stringIcSt11char_traitsIcESaIcEEES5_S5_ESt12_PlaceholderILi1EEPKcEE:
	.ascii "St5_BindIFPFNSt7__cxx1112basic_stringIcSt11char_traitsIcESaIcEEES5_S5_ESt12_PlaceholderILi1EEPKcEE\0"
	.globl	_ZTISt5_BindIFPFNSt7__cxx1112basic_stringIcSt11char_traitsIcESaIcEEES5_S5_ESt12_PlaceholderILi1EEPKcEE
	.section	.rdata$_ZTISt5_BindIFPFNSt7__cxx1112basic_stringIcSt11char_traitsIcESaIcEEES5_S5_ESt12_PlaceholderILi1EEPKcEE,"dr"
	.linkonce same_size
	.align 8
_ZTISt5_BindIFPFNSt7__cxx1112basic_stringIcSt11char_traitsIcESaIcEEES5_S5_ESt12_PlaceholderILi1EEPKcEE:
	.quad	_ZTVN10__cxxabiv120__si_class_type_infoE+16
	.quad	_ZTSSt5_BindIFPFNSt7__cxx1112basic_stringIcSt11char_traitsIcESaIcEEES5_S5_ESt12_PlaceholderILi1EEPKcEE
	.quad	_ZTISt17_Weak_result_typeIPFNSt7__cxx1112basic_stringIcSt11char_traitsIcESaIcEEES5_S5_EE
.lcomm _ZStL8__ioinit,1,1
	.section .rdata,"dr"
	.align 8
.LC1:
	.long	1
	.long	0
	.align 8
.LC5:
	.long	0
	.long	1083129856
	.ident	"GCC: (GNU) 12.3.0"
	.def	_ZNSt8ios_base4InitD1Ev;	.scl	2;	.type	32;	.endef
	.def	_ZdlPvy;	.scl	2;	.type	32;	.endef
	.def	_Znwy;	.scl	2;	.type	32;	.endef
	.def	_ZNSt7__cxx1112basic_stringIcSt11char_traitsIcESaIcEE9_M_createERyy;	.scl	2;	.type	32;	.endef
	.def	memcpy;	.scl	2;	.type	32;	.endef
	.def	_ZNSt7__cxx1112basic_stringIcSt11char_traitsIcESaIcEE10_M_disposeEv;	.scl	2;	.type	32;	.endef
	.def	_Unwind_Resume;	.scl	2;	.type	32;	.endef
	.def	strlen;	.scl	2;	.type	32;	.endef
	.def	_ZSt19__throw_logic_errorPKc;	.scl	2;	.type	32;	.endef
	.def	memcmp;	.scl	2;	.type	32;	.endef
	.def	_ZSt18_Rb_tree_decrementPSt18_Rb_tree_node_base;	.scl	2;	.type	32;	.endef
	.def	_ZSt29_Rb_tree_insert_and_rebalancebPSt18_Rb_tree_node_baseS0_RS_;	.scl	2;	.type	32;	.endef
	.def	_ZSt7getlineIcSt11char_traitsIcESaIcEERSt13basic_istreamIT_T0_ES7_RNSt7__cxx1112basic_stringIS4_S5_T1_EES4_;	.scl	2;	.type	32;	.endef
	.def	_ZSt16__ostream_insertIcSt11char_traitsIcEERSt13basic_ostreamIT_T0_ES6_PKS3_x;	.scl	2;	.type	32;	.endef
	.def	_ZNSi10_M_extractIyEERSiRT_;	.scl	2;	.type	32;	.endef
	.def	clock;	.scl	2;	.type	32;	.endef
	.def	_ZNSo9_M_insertIdEERSoT_;	.scl	2;	.type	32;	.endef
	.def	_ZNSo9_M_insertIyEERSoT_;	.scl	2;	.type	32;	.endef
	.def	_ZNKSt5ctypeIcE13_M_widen_initEv;	.scl	2;	.type	32;	.endef
	.def	_ZStrsIcSt11char_traitsIcESaIcEERSt13basic_istreamIT_T0_ES7_RNSt7__cxx1112basic_stringIS4_S5_T1_EE;	.scl	2;	.type	32;	.endef
	.def	_ZNSt8ios_baseC2Ev;	.scl	2;	.type	32;	.endef
	.def	_ZNSt9basic_iosIcSt11char_traitsIcEE4initEPSt15basic_streambufIcS1_E;	.scl	2;	.type	32;	.endef
	.def	_ZNSt13basic_filebufIcSt11char_traitsIcEEC1Ev;	.scl	2;	.type	32;	.endef
	.def	_ZNSt13basic_filebufIcSt11char_traitsIcEE4openEPKcSt13_Ios_Openmode;	.scl	2;	.type	32;	.endef
	.def	_ZNSt9basic_iosIcSt11char_traitsIcEE5clearESt12_Ios_Iostate;	.scl	2;	.type	32;	.endef
	.def	_ZStlsISt11char_traitsIcEERSt13basic_ostreamIcT_ES5_PKc;	.scl	2;	.type	32;	.endef
	.def	_ZNSt13basic_fstreamIcSt11char_traitsIcEED1Ev;	.scl	2;	.type	32;	.endef
	.def	_ZStrsIcSt11char_traitsIcEERSt13basic_istreamIT_T0_ES6_RS3_;	.scl	2;	.type	32;	.endef
	.def	_ZNSt7__cxx1112basic_stringIcSt11char_traitsIcESaIcEE14_M_replace_auxEyyyc;	.scl	2;	.type	32;	.endef
	.def	_ZNSt13basic_fstreamIcSt11char_traitsIcEE5closeEv;	.scl	2;	.type	32;	.endef
	.def	_ZNSt7__cxx1112basic_stringIcSt11char_traitsIcESaIcEEC1ERKS4_;	.scl	2;	.type	32;	.endef
	.def	_ZSt16__throw_bad_castv;	.scl	2;	.type	32;	.endef
	.def	_ZSt25__throw_bad_function_callv;	.scl	2;	.type	32;	.endef
	.def	_ZNSt8ios_baseD2Ev;	.scl	2;	.type	32;	.endef
	.def	_ZNSdD2Ev;	.scl	2;	.type	32;	.endef
	.def	_ZNSt13basic_filebufIcSt11char_traitsIcEED1Ev;	.scl	2;	.type	32;	.endef
	.def	__cxa_begin_catch;	.scl	2;	.type	32;	.endef
	.def	__cxa_rethrow;	.scl	2;	.type	32;	.endef
	.def	__cxa_end_catch;	.scl	2;	.type	32;	.endef
	.def	_ZNSt8ios_base4InitC1Ev;	.scl	2;	.type	32;	.endef
	.def	atexit;	.scl	2;	.type	32;	.endef
	.section	.rdata$.refptr._ZSt4cerr, "dr"
	.globl	.refptr._ZSt4cerr
	.linkonce	discard
.refptr._ZSt4cerr:
	.quad	_ZSt4cerr
	.section	.rdata$.refptr._ZTVSt13basic_fstreamIcSt11char_traitsIcEE, "dr"
	.globl	.refptr._ZTVSt13basic_fstreamIcSt11char_traitsIcEE
	.linkonce	discard
.refptr._ZTVSt13basic_fstreamIcSt11char_traitsIcEE:
	.quad	_ZTVSt13basic_fstreamIcSt11char_traitsIcEE
	.section	.rdata$.refptr._ZTTSt13basic_fstreamIcSt11char_traitsIcEE, "dr"
	.globl	.refptr._ZTTSt13basic_fstreamIcSt11char_traitsIcEE
	.linkonce	discard
.refptr._ZTTSt13basic_fstreamIcSt11char_traitsIcEE:
	.quad	_ZTTSt13basic_fstreamIcSt11char_traitsIcEE
	.section	.rdata$.refptr._ZTVSt9basic_iosIcSt11char_traitsIcEE, "dr"
	.globl	.refptr._ZTVSt9basic_iosIcSt11char_traitsIcEE
	.linkonce	discard
.refptr._ZTVSt9basic_iosIcSt11char_traitsIcEE:
	.quad	_ZTVSt9basic_iosIcSt11char_traitsIcEE
	.section	.rdata$.refptr._ZSt4cout, "dr"
	.globl	.refptr._ZSt4cout
	.linkonce	discard
.refptr._ZSt4cout:
	.quad	_ZSt4cout
	.section	.rdata$.refptr._ZSt3cin, "dr"
	.globl	.refptr._ZSt3cin
	.linkonce	discard
.refptr._ZSt3cin:
	.quad	_ZSt3cin
	.section	.rdata$.refptr._ZN11delspacerec21deleteSpaceTrampolineENSt7__cxx1112basic_stringIcSt11char_traitsIcESaIcEEE, "dr"
	.globl	.refptr._ZN11delspacerec21deleteSpaceTrampolineENSt7__cxx1112basic_stringIcSt11char_traitsIcESaIcEEE
	.linkonce	discard
.refptr._ZN11delspacerec21deleteSpaceTrampolineENSt7__cxx1112basic_stringIcSt11char_traitsIcESaIcEEE:
	.quad	_ZN11delspacerec21deleteSpaceTrampolineENSt7__cxx1112basic_stringIcSt11char_traitsIcESaIcEEE
	.section	.rdata$.refptr._ZN11delspacerec15deleteSpaceTailENSt7__cxx1112basic_stringIcSt11char_traitsIcESaIcEEES5_, "dr"
	.globl	.refptr._ZN11delspacerec15deleteSpaceTailENSt7__cxx1112basic_stringIcSt11char_traitsIcESaIcEEES5_
	.linkonce	discard
.refptr._ZN11delspacerec15deleteSpaceTailENSt7__cxx1112basic_stringIcSt11char_traitsIcESaIcEEES5_:
	.quad	_ZN11delspacerec15deleteSpaceTailENSt7__cxx1112basic_stringIcSt11char_traitsIcESaIcEEES5_
	.section	.rdata$.refptr._ZN11delspacerec14deleteSpaceStdENSt7__cxx1112basic_stringIcSt11char_traitsIcESaIcEEE, "dr"
	.globl	.refptr._ZN11delspacerec14deleteSpaceStdENSt7__cxx1112basic_stringIcSt11char_traitsIcESaIcEEE
	.linkonce	discard
.refptr._ZN11delspacerec14deleteSpaceStdENSt7__cxx1112basic_stringIcSt11char_traitsIcESaIcEEE:
	.quad	_ZN11delspacerec14deleteSpaceStdENSt7__cxx1112basic_stringIcSt11char_traitsIcESaIcEEE
	.section	.rdata$.refptr._ZN9frmoneton23sumFromOneToNTrampolineEy, "dr"
	.globl	.refptr._ZN9frmoneton23sumFromOneToNTrampolineEy
	.linkonce	discard
.refptr._ZN9frmoneton23sumFromOneToNTrampolineEy:
	.quad	_ZN9frmoneton23sumFromOneToNTrampolineEy
	.section	.rdata$.refptr._ZN9frmoneton17sumFromOneToNTailEyy, "dr"
	.globl	.refptr._ZN9frmoneton17sumFromOneToNTailEyy
	.linkonce	discard
.refptr._ZN9frmoneton17sumFromOneToNTailEyy:
	.quad	_ZN9frmoneton17sumFromOneToNTailEyy
	.section	.rdata$.refptr._ZN9frmoneton16sumFromOneToNStdEy, "dr"
	.globl	.refptr._ZN9frmoneton16sumFromOneToNStdEy
	.linkonce	discard
.refptr._ZN9frmoneton16sumFromOneToNStdEy:
	.quad	_ZN9frmoneton16sumFromOneToNStdEy
	.section	.rdata$.refptr._ZN7fbncrec28getFibonacciNumberTrampolineEj, "dr"
	.globl	.refptr._ZN7fbncrec28getFibonacciNumberTrampolineEj
	.linkonce	discard
.refptr._ZN7fbncrec28getFibonacciNumberTrampolineEj:
	.quad	_ZN7fbncrec28getFibonacciNumberTrampolineEj
	.section	.rdata$.refptr._ZN7fbncrec22getFibonacciNumberTailEjyy, "dr"
	.globl	.refptr._ZN7fbncrec22getFibonacciNumberTailEjyy
	.linkonce	discard
.refptr._ZN7fbncrec22getFibonacciNumberTailEjyy:
	.quad	_ZN7fbncrec22getFibonacciNumberTailEjyy
	.section	.rdata$.refptr._ZN7fbncrec21getFibonacciNumberStdEj, "dr"
	.globl	.refptr._ZN7fbncrec21getFibonacciNumberStdEj
	.linkonce	discard
.refptr._ZN7fbncrec21getFibonacciNumberStdEj:
	.quad	_ZN7fbncrec21getFibonacciNumberStdEj
