	.text
	.def	@feat.00;
	.scl	3;
	.type	0;
	.endef
	.globl	@feat.00
.set @feat.00, 0
	.file	"main.cpp"
	.def	main;
	.scl	2;
	.type	32;
	.endef
	.globl	__real@408f400000000000         # -- Begin function main
	.section	.rdata,"dr",discard,__real@408f400000000000
	.p2align	3, 0x0
__real@408f400000000000:
	.quad	0x408f400000000000              # double 1000
	.text
	.globl	main
	.p2align	4, 0x90
main:                                   # @main
.Lfunc_begin0:
.seh_proc main
	.seh_handler __CxxFrameHandler3, @unwind, @except
# %bb.0:
	pushq	%rbp
	.seh_pushreg %rbp
	pushq	%r15
	.seh_pushreg %r15
	pushq	%r14
	.seh_pushreg %r14
	pushq	%r13
	.seh_pushreg %r13
	pushq	%r12
	.seh_pushreg %r12
	pushq	%rsi
	.seh_pushreg %rsi
	pushq	%rdi
	.seh_pushreg %rdi
	pushq	%rbx
	.seh_pushreg %rbx
	subq	$1064, %rsp                     # imm = 0x428
	.seh_stackalloc 1064
	leaq	128(%rsp), %rbp
	.seh_setframe %rbp, 128
	movapd	%xmm7, 912(%rbp)                # 16-byte Spill
	.seh_savexmm %xmm7, 1040
	movaps	%xmm6, 896(%rbp)                # 16-byte Spill
	.seh_savexmm %xmm6, 1024
	.seh_endprologue
	movq	$-2, 888(%rbp)
	movq	$0, (%rbp)
	xorps	%xmm6, %xmm6
	movups	%xmm6, 16(%rbp)
	movq	$15, 24(%rbp)
	movb	$0, (%rbp)
	movq	%rbp, %rcx
	movq	%rcx, 872(%rbp)
	movb	$0, 887(%rbp)
.Ltmp0:
	leaq	"??_C@_0BG@IEBMKNNC@getFibonacciNumberStd?$AA@"(%rip), %r9
	movl	$21, %edx
	callq	"??$_Reallocate_for@V<lambda_1>@?0??assign@?$basic_string@DU?$char_traits@D@std@@V?$allocator@D@2@@std@@QEAAAEAV34@QEBD_K@Z@PEBD@?$basic_string@DU?$char_traits@D@std@@V?$allocator@D@2@@std@@AEAAAEAV01@_KV<lambda_1>@?0??assign@01@QEAAAEAV01@QEBD0@Z@PEBD@Z"
.Ltmp1:
# %bb.1:
	leaq	32(%rbp), %rbx
	movups	%xmm6, 88(%rbp)
	leaq	"??_7?$_Func_impl_no_alloc@P6A_KI@Z_K_K@std@@6B@"(%rip), %rsi
	movq	%rsi, 32(%rbp)
	leaq	"?getFibonacciNumberStd@fbncrec@@YA_KI@Z"(%rip), %rax
	movq	%rax, 40(%rbp)
	movq	%rbx, 88(%rbp)
	leaq	96(%rbp), %rcx
	movups	%xmm6, 112(%rbp)
	movq	$15, 120(%rbp)
	movb	$0, 96(%rbp)
	movq	%rcx, 872(%rbp)
	movb	$0, 887(%rbp)
.Ltmp2:
	leaq	"??_C@_0BH@HMCOGDBA@getFibonacciNumberTail?$AA@"(%rip), %r9
	movl	$22, %edx
	callq	"??$_Reallocate_for@V<lambda_1>@?0??assign@?$basic_string@DU?$char_traits@D@std@@V?$allocator@D@2@@std@@QEAAAEAV34@QEBD_K@Z@PEBD@?$basic_string@DU?$char_traits@D@std@@V?$allocator@D@2@@std@@AEAAAEAV01@_KV<lambda_1>@?0??assign@01@QEAAAEAV01@QEBD0@Z@PEBD@Z"
.Ltmp3:
# %bb.2:
	leaq	128(%rbp), %r14
	movups	%xmm6, 184(%rbp)
	leaq	"??_7?$_Func_impl_no_alloc@V?$_Binder@U_Unforced@std@@A6A_KI_K0@ZAEBU?$_Ph@$00@2@HH@std@@_K_K@std@@6B@"(%rip), %rax
	movq	%rax, 128(%rbp)
	leaq	"?getFibonacciNumberTail@fbncrec@@YA_KI_K0@Z"(%rip), %rax
	movq	%rax, 136(%rbp)
	movq	$1, 144(%rbp)
	movq	%r14, 184(%rbp)
	leaq	192(%rbp), %rcx
	movups	%xmm6, 208(%rbp)
	movq	$15, 216(%rbp)
	movb	$0, 192(%rbp)
	movq	%rcx, 872(%rbp)
	movb	$0, 887(%rbp)
.Ltmp4:
	leaq	"??_C@_0BN@COEMOIPL@getFibonacciNumberTrampoline?$AA@"(%rip), %r9
	movl	$28, %edx
	callq	"??$_Reallocate_for@V<lambda_1>@?0??assign@?$basic_string@DU?$char_traits@D@std@@V?$allocator@D@2@@std@@QEAAAEAV34@QEBD_K@Z@PEBD@?$basic_string@DU?$char_traits@D@std@@V?$allocator@D@2@@std@@AEAAAEAV01@_KV<lambda_1>@?0??assign@01@QEAAAEAV01@QEBD0@Z@PEBD@Z"
.Ltmp5:
# %bb.3:
	leaq	224(%rbp), %r12
	movups	%xmm6, 280(%rbp)
	movq	%rsi, 224(%rbp)
	leaq	"?getFibonacciNumberTrampoline@fbncrec@@YA_KI@Z"(%rip), %rax
	movq	%rax, 232(%rbp)
	movq	%r12, 280(%rbp)
	leaq	288(%rbp), %rcx
	movups	%xmm6, 304(%rbp)
	movq	$15, 312(%rbp)
	movb	$0, 288(%rbp)
	movq	%rcx, 872(%rbp)
	movb	$0, 887(%rbp)
.Ltmp6:
	leaq	"??_C@_0BB@JJFFGPDP@sumFromOneToNStd?$AA@"(%rip), %r9
	movl	$16, %edx
	callq	"??$_Reallocate_for@V<lambda_1>@?0??assign@?$basic_string@DU?$char_traits@D@std@@V?$allocator@D@2@@std@@QEAAAEAV34@QEBD_K@Z@PEBD@?$basic_string@DU?$char_traits@D@std@@V?$allocator@D@2@@std@@AEAAAEAV01@_KV<lambda_1>@?0??assign@01@QEAAAEAV01@QEBD0@Z@PEBD@Z"
.Ltmp7:
# %bb.4:
	leaq	320(%rbp), %rax
	movups	%xmm6, 376(%rbp)
	leaq	"??_7?$_Func_impl_no_alloc@P6A_K_K@Z_K_K@std@@6B@"(%rip), %rsi
	movq	%rsi, 320(%rbp)
	leaq	"?sumFromOneToNStd@frmoneton@@YA_K_K@Z"(%rip), %rcx
	movq	%rcx, 328(%rbp)
	movq	%rax, 376(%rbp)
	leaq	384(%rbp), %rcx
	movups	%xmm6, 400(%rbp)
	movq	$15, 408(%rbp)
	movb	$0, 384(%rbp)
	movq	%rcx, 872(%rbp)
	movb	$0, 887(%rbp)
.Ltmp8:
	leaq	"??_C@_0BC@KCIILEBH@sumFromOneToNTail?$AA@"(%rip), %r9
	movl	$17, %edx
	callq	"??$_Reallocate_for@V<lambda_1>@?0??assign@?$basic_string@DU?$char_traits@D@std@@V?$allocator@D@2@@std@@QEAAAEAV34@QEBD_K@Z@PEBD@?$basic_string@DU?$char_traits@D@std@@V?$allocator@D@2@@std@@AEAAAEAV01@_KV<lambda_1>@?0??assign@01@QEAAAEAV01@QEBD0@Z@PEBD@Z"
.Ltmp9:
# %bb.5:
	leaq	416(%rbp), %rax
	movups	%xmm6, 472(%rbp)
	leaq	"??_7?$_Func_impl_no_alloc@V?$_Binder@U_Unforced@std@@A6A_K_K0@ZAEBU?$_Ph@$00@2@H@std@@_K_K@std@@6B@"(%rip), %rcx
	movq	%rcx, 416(%rbp)
	leaq	"?sumFromOneToNTail@frmoneton@@YA_K_K0@Z"(%rip), %rcx
	movq	%rcx, 424(%rbp)
	movl	$0, 432(%rbp)
	movq	%rax, 472(%rbp)
	leaq	480(%rbp), %rcx
	movups	%xmm6, 496(%rbp)
	movq	$15, 504(%rbp)
	movb	$0, 480(%rbp)
	movq	%rcx, 872(%rbp)
	movb	$0, 887(%rbp)
.Ltmp10:
	leaq	"??_C@_0BI@OHILCFOJ@sumFromOneToNTrampoline?$AA@"(%rip), %r9
	movl	$23, %edx
	callq	"??$_Reallocate_for@V<lambda_1>@?0??assign@?$basic_string@DU?$char_traits@D@std@@V?$allocator@D@2@@std@@QEAAAEAV34@QEBD_K@Z@PEBD@?$basic_string@DU?$char_traits@D@std@@V?$allocator@D@2@@std@@AEAAAEAV01@_KV<lambda_1>@?0??assign@01@QEAAAEAV01@QEBD0@Z@PEBD@Z"
.Ltmp11:
# %bb.6:
	leaq	512(%rbp), %rcx
	movq	%rsi, 512(%rbp)
	leaq	"?sumFromOneToNTrampoline@frmoneton@@YA_K_K@Z"(%rip), %rax
	movq	%rax, 520(%rbp)
	movq	%rcx, 568(%rbp)
	xorps	%xmm0, %xmm0
	movaps	%xmm0, 832(%rbp)
.Ltmp12:
	movl	$128, %ecx
	callq	"??2@YAPEAX_K@Z"
.Ltmp13:
# %bb.7:
	movq	%rax, %rsi
	movq	%rax, (%rax)
	movq	%rax, 8(%rax)
	movq	%rax, 16(%rax)
	movw	$257, 24(%rax)                  # imm = 0x101
	movq	%rax, 832(%rbp)
	xorl	%r15d, %r15d
	leaq	832(%rbp), %rdi
	.p2align	4, 0x90
.LBB0_8:                                # =>This Inner Loop Header: Depth=1
	leaq	(%r15,%rbp), %r8
.Ltmp14:
	movq	%rdi, %rcx
	movq	%rsi, %rdx
	callq	"??$_Emplace_hint@AEBU?$pair@$$CBV?$basic_string@DU?$char_traits@D@std@@V?$allocator@D@2@@std@@V?$function@$$A6A_K_K@Z@2@@std@@@?$_Tree@V?$_Tmap_traits@V?$basic_string@DU?$char_traits@D@std@@V?$allocator@D@2@@std@@V?$function@$$A6A_K_K@Z@2@U?$less@V?$basic_string@DU?$char_traits@D@std@@V?$allocator@D@2@@std@@@2@V?$allocator@U?$pair@$$CBV?$basic_string@DU?$char_traits@D@std@@V?$allocator@D@2@@std@@V?$function@$$A6A_K_K@Z@2@@std@@@2@$0A@@std@@@std@@IEAAPEAU?$_Tree_node@U?$pair@$$CBV?$basic_string@DU?$char_traits@D@std@@V?$allocator@D@2@@std@@V?$function@$$A6A_K_K@Z@2@@std@@PEAX@1@QEAU21@AEBU?$pair@$$CBV?$basic_string@DU?$char_traits@D@std@@V?$allocator@D@2@@std@@V?$function@$$A6A_K_K@Z@2@@1@@Z"
.Ltmp15:
# %bb.9:                                #   in Loop: Header=BB0_8 Depth=1
	addq	$96, %r15
	cmpq	$576, %r15                      # imm = 0x240
	jne	.LBB0_8
# %bb.10:
	movl	$576, %esi                      # imm = 0x240
	jmp	.LBB0_11
	.p2align	4, 0x90
.LBB0_19:                               #   in Loop: Header=BB0_11 Depth=1
	addq	$40, %rax
	movq	%rax, %rdx
	movq	%r8, %rcx
.LBB0_20:                               #   in Loop: Header=BB0_11 Depth=1
	callq	"??3@YAXPEAX_K@Z"
.LBB0_21:                               #   in Loop: Header=BB0_11 Depth=1
	movq	$0, -80(%rbp,%rsi)
	movq	$15, -72(%rbp,%rsi)
	movb	$0, -96(%rbp,%rsi)
	addq	$-96, %rsi
	je	.LBB0_22
.LBB0_11:                               # =>This Inner Loop Header: Depth=1
	movq	-8(%rbp,%rsi), %rcx
	testq	%rcx, %rcx
	je	.LBB0_13
# %bb.12:                               #   in Loop: Header=BB0_11 Depth=1
	leaq	(%rsi,%rbp), %rax
	addq	$-64, %rax
	cmpq	%rcx, %rax
	setne	%dl
	movq	(%rcx), %rax
	callq	*32(%rax)
	movq	$0, -8(%rbp,%rsi)
.LBB0_13:                               #   in Loop: Header=BB0_11 Depth=1
	movq	-72(%rbp,%rsi), %rax
	cmpq	$16, %rax
	jb	.LBB0_21
# %bb.14:                               #   in Loop: Header=BB0_11 Depth=1
	movq	-96(%rbp,%rsi), %rcx
	leaq	1(%rax), %rdx
	cmpq	$4096, %rdx                     # imm = 0x1000
	jb	.LBB0_20
# %bb.15:                               #   in Loop: Header=BB0_11 Depth=1
	movq	-8(%rcx), %r8
	addq	$-8, %rcx
	subq	%r8, %rcx
	cmpq	$32, %rcx
	jb	.LBB0_19
# %bb.16:
.Ltmp16:
	callq	_invalid_parameter_noinfo_noreturn
.Ltmp17:
# %bb.17:
.LBB0_22:
	movq	$0, (%rbp)
	xorps	%xmm6, %xmm6
	movups	%xmm6, 16(%rbp)
	movq	$15, 24(%rbp)
	movq	$14, 16(%rbp)
	movabsq	$8093924505907127652, %rax      # imm = 0x70536574656C6564
	movq	%rax, (%rbp)
	movabsq	$7238502196015362131, %rcx      # imm = 0x6474536563617053
	movq	%rcx, 6(%rbp)
	movb	$0, 14(%rbp)
	leaq	"??_7?$_Func_impl_no_alloc@P6A?AV?$basic_string@DU?$char_traits@D@std@@V?$allocator@D@2@@std@@V12@@ZV12@V12@@std@@6B@"(%rip), %rsi
	movq	%rsi, 32(%rbp)
	leaq	"?deleteSpaceStd@delspacerec@@YA?AV?$basic_string@DU?$char_traits@D@std@@V?$allocator@D@2@@std@@V23@@Z"(%rip), %rcx
	movq	%rcx, 40(%rbp)
	movq	%rbx, 88(%rbp)
	movq	$0, 96(%rbp)
	movups	%xmm6, 112(%rbp)
	movq	$15, 120(%rbp)
	movq	$15, 112(%rbp)
	movabsq	$7811882043756994928, %rcx      # imm = 0x6C69615465636170
	movq	%rcx, 103(%rbp)
	movq	%rax, 96(%rbp)
	movb	$0, 111(%rbp)
	movups	%xmm6, 184(%rbp)
	leaq	"??_7?$_Func_impl_no_alloc@V?$_Binder@U_Unforced@std@@A6A?AV?$basic_string@DU?$char_traits@D@std@@V?$allocator@D@2@@2@V32@0@ZAEBU?$_Ph@$00@2@AEAY00$$CBD@std@@V?$basic_string@DU?$char_traits@D@std@@V?$allocator@D@2@@2@V32@@std@@6B@"(%rip), %rax
	movq	%rax, 128(%rbp)
	leaq	"?deleteSpaceTail@delspacerec@@YA?AV?$basic_string@DU?$char_traits@D@std@@V?$allocator@D@2@@std@@V23@0@Z"(%rip), %rax
	movq	%rax, 136(%rbp)
	leaq	"??_C@_00CNPNBAHC@?$AA@"(%rip), %rax
	movq	%rax, 144(%rbp)
	movq	%r14, 184(%rbp)
	leaq	192(%rbp), %rcx
	movups	%xmm6, 208(%rbp)
	movq	$15, 216(%rbp)
	movb	$0, 192(%rbp)
	movb	$0, 886(%rbp)
.Ltmp18:
	leaq	"??_C@_0BG@NBAMCJGB@deleteSpaceTrampoline?$AA@"(%rip), %r9
	movl	$21, %edx
	callq	"??$_Reallocate_for@V<lambda_1>@?0??assign@?$basic_string@DU?$char_traits@D@std@@V?$allocator@D@2@@std@@QEAAAEAV34@QEBD_K@Z@PEBD@?$basic_string@DU?$char_traits@D@std@@V?$allocator@D@2@@std@@AEAAAEAV01@_KV<lambda_1>@?0??assign@01@QEAAAEAV01@QEBD0@Z@PEBD@Z"
.Ltmp19:
# %bb.23:
	movq	%rsi, 224(%rbp)
	leaq	"?deleteSpaceTrampoline@delspacerec@@YA?AV?$basic_string@DU?$char_traits@D@std@@V?$allocator@D@2@@std@@V23@@Z"(%rip), %rax
	movq	%rax, 232(%rbp)
	movq	%r12, 280(%rbp)
	movaps	%xmm6, 848(%rbp)
.Ltmp20:
	movl	$128, %ecx
	callq	"??2@YAPEAX_K@Z"
.Ltmp21:
# %bb.24:
	movq	%rax, %rsi
	movq	%rax, (%rax)
	movq	%rax, 8(%rax)
	movq	%rax, 16(%rax)
	movw	$257, 24(%rax)                  # imm = 0x101
	movq	%rax, 848(%rbp)
	xorl	%ebx, %ebx
	leaq	848(%rbp), %rdi
	.p2align	4, 0x90
.LBB0_25:                               # =>This Inner Loop Header: Depth=1
	leaq	(%rbx,%rbp), %r8
.Ltmp22:
	movq	%rdi, %rcx
	movq	%rsi, %rdx
	callq	"??$_Emplace_hint@AEBU?$pair@$$CBV?$basic_string@DU?$char_traits@D@std@@V?$allocator@D@2@@std@@V?$function@$$A6A?AV?$basic_string@DU?$char_traits@D@std@@V?$allocator@D@2@@std@@V12@@Z@2@@std@@@?$_Tree@V?$_Tmap_traits@V?$basic_string@DU?$char_traits@D@std@@V?$allocator@D@2@@std@@V?$function@$$A6A?AV?$basic_string@DU?$char_traits@D@std@@V?$allocator@D@2@@std@@V12@@Z@2@U?$less@V?$basic_string@DU?$char_traits@D@std@@V?$allocator@D@2@@std@@@2@V?$allocator@U?$pair@$$CBV?$basic_string@DU?$char_traits@D@std@@V?$allocator@D@2@@std@@V?$function@$$A6A?AV?$basic_string@DU?$char_traits@D@std@@V?$allocator@D@2@@std@@V12@@Z@2@@std@@@2@$0A@@std@@@std@@IEAAPEAU?$_Tree_node@U?$pair@$$CBV?$basic_string@DU?$char_traits@D@std@@V?$allocator@D@2@@std@@V?$function@$$A6A?AV?$basic_string@DU?$char_traits@D@std@@V?$allocator@D@2@@std@@V12@@Z@2@@std@@PEAX@1@QEAU21@AEBU?$pair@$$CBV?$basic_string@DU?$char_traits@D@std@@V?$allocator@D@2@@std@@V?$function@$$A6A?AV?$basic_string@DU?$char_traits@D@std@@V?$allocator@D@2@@std@@V12@@Z@2@@1@@Z"
.Ltmp23:
# %bb.26:                               #   in Loop: Header=BB0_25 Depth=1
	addq	$96, %rbx
	cmpq	$288, %rbx                      # imm = 0x120
	jne	.LBB0_25
# %bb.27:
	movl	$288, %esi                      # imm = 0x120
	jmp	.LBB0_28
	.p2align	4, 0x90
.LBB0_36:                               #   in Loop: Header=BB0_28 Depth=1
	addq	$40, %rax
	movq	%rax, %rdx
	movq	%r8, %rcx
.LBB0_37:                               #   in Loop: Header=BB0_28 Depth=1
	callq	"??3@YAXPEAX_K@Z"
.LBB0_38:                               #   in Loop: Header=BB0_28 Depth=1
	movq	$0, -80(%rbp,%rsi)
	movq	$15, -72(%rbp,%rsi)
	movb	$0, -96(%rbp,%rsi)
	addq	$-96, %rsi
	je	.LBB0_39
.LBB0_28:                               # =>This Inner Loop Header: Depth=1
	movq	-8(%rbp,%rsi), %rcx
	testq	%rcx, %rcx
	je	.LBB0_30
# %bb.29:                               #   in Loop: Header=BB0_28 Depth=1
	leaq	(%rsi,%rbp), %rax
	addq	$-64, %rax
	cmpq	%rcx, %rax
	setne	%dl
	movq	(%rcx), %rax
	callq	*32(%rax)
	movq	$0, -8(%rbp,%rsi)
.LBB0_30:                               #   in Loop: Header=BB0_28 Depth=1
	movq	-72(%rbp,%rsi), %rax
	cmpq	$16, %rax
	jb	.LBB0_38
# %bb.31:                               #   in Loop: Header=BB0_28 Depth=1
	movq	-96(%rbp,%rsi), %rcx
	leaq	1(%rax), %rdx
	cmpq	$4096, %rdx                     # imm = 0x1000
	jb	.LBB0_37
# %bb.32:                               #   in Loop: Header=BB0_28 Depth=1
	movq	-8(%rcx), %r8
	addq	$-8, %rcx
	subq	%r8, %rcx
	cmpq	$32, %rcx
	jb	.LBB0_36
# %bb.33:
.Ltmp24:
	callq	_invalid_parameter_noinfo_noreturn
.Ltmp25:
# %bb.34:
.LBB0_39:
	leaq	"?cin@std@@3V?$basic_istream@DU?$char_traits@D@std@@@1@A"(%rip), %rbx
	xorps	%xmm6, %xmm6
	leaq	672(%rbp), %r14
	movsd	__real@408f400000000000(%rip), %xmm7 # xmm7 = mem[0],zero
	jmp	.LBB0_40
	.p2align	4, 0x90
.LBB0_219:                              #   in Loop: Header=BB0_40 Depth=1
	addq	$40, %rax
	movq	%rax, %rdx
	movq	%r8, %rcx
.LBB0_220:                              #   in Loop: Header=BB0_40 Depth=1
	callq	"??3@YAXPEAX_K@Z"
.LBB0_40:                               # =>This Loop Header: Depth=1
                                        #     Child Loop BB0_108 Depth 2
	movq	"?cin@std@@3V?$basic_istream@DU?$char_traits@D@std@@@1@A"(%rip), %rax
	movslq	4(%rax), %rax
	testb	$1, 16(%rax,%rbx)
	jne	.LBB0_222
# %bb.41:                               #   in Loop: Header=BB0_40 Depth=1
	movq	$0, 672(%rbp)
	leaq	688(%rbp), %rax
	movups	%xmm6, (%rax)
	movq	$15, 696(%rbp)
	movb	$0, 672(%rbp)
	movq	$0, 688(%rbp)
.Ltmp26:
	movq	%rbx, %rcx
	movq	%r14, %rdx
	callq	"??$getline@DU?$char_traits@D@std@@V?$allocator@D@2@@std@@YAAEAV?$basic_istream@DU?$char_traits@D@std@@@0@AEAV10@AEAV?$basic_string@DU?$char_traits@D@std@@V?$allocator@D@2@@0@@Z"
.Ltmp27:
# %bb.42:                               #   in Loop: Header=BB0_40 Depth=1
	cmpq	$0, 688(%rbp)
	je	.LBB0_213
# %bb.43:                               #   in Loop: Header=BB0_40 Depth=1
	leaq	832(%rbp), %rcx
	movq	%r14, %rdx
	callq	"??$_Find@V?$basic_string@DU?$char_traits@D@std@@V?$allocator@D@2@@std@@@?$_Tree@V?$_Tmap_traits@V?$basic_string@DU?$char_traits@D@std@@V?$allocator@D@2@@std@@V?$function@$$A6A_K_K@Z@2@U?$less@V?$basic_string@DU?$char_traits@D@std@@V?$allocator@D@2@@std@@@2@V?$allocator@U?$pair@$$CBV?$basic_string@DU?$char_traits@D@std@@V?$allocator@D@2@@std@@V?$function@$$A6A_K_K@Z@2@@std@@@2@$0A@@std@@@std@@AEBAPEAU?$_Tree_node@U?$pair@$$CBV?$basic_string@DU?$char_traits@D@std@@V?$allocator@D@2@@std@@V?$function@$$A6A_K_K@Z@2@@std@@PEAX@1@AEBV?$basic_string@DU?$char_traits@D@std@@V?$allocator@D@2@@1@@Z"
	cmpq	832(%rbp), %rax
	je	.LBB0_99
# %bb.44:                               #   in Loop: Header=BB0_40 Depth=1
.Ltmp28:
	leaq	"?cout@std@@3V?$basic_ostream@DU?$char_traits@D@std@@@1@A"(%rip), %rcx
	leaq	"??_C@_0BB@LDNHNGKB@Enter?5argument?3?5?$AA@"(%rip), %rdx
	callq	"??$?6U?$char_traits@D@std@@@std@@YAAEAV?$basic_ostream@DU?$char_traits@D@std@@@0@AEAV10@PEBD@Z"
.Ltmp29:
# %bb.45:                               #   in Loop: Header=BB0_40 Depth=1
	movq	$0, 768(%rbp)
.Ltmp30:
	movq	%rbx, %rcx
	leaq	768(%rbp), %rdx
	callq	"??$_Common_extract_with_num_get@_K@?$basic_istream@DU?$char_traits@D@std@@@std@@AEAAAEAV01@AEA_K@Z"
.Ltmp31:
# %bb.46:                               #   in Loop: Header=BB0_40 Depth=1
	leaq	832(%rbp), %rcx
	movq	%r14, %rdx
	callq	"??$_Find@V?$basic_string@DU?$char_traits@D@std@@V?$allocator@D@2@@std@@@?$_Tree@V?$_Tmap_traits@V?$basic_string@DU?$char_traits@D@std@@V?$allocator@D@2@@std@@V?$function@$$A6A_K_K@Z@2@U?$less@V?$basic_string@DU?$char_traits@D@std@@V?$allocator@D@2@@std@@@2@V?$allocator@U?$pair@$$CBV?$basic_string@DU?$char_traits@D@std@@V?$allocator@D@2@@std@@V?$function@$$A6A_K_K@Z@2@@std@@@2@$0A@@std@@@std@@AEBAPEAU?$_Tree_node@U?$pair@$$CBV?$basic_string@DU?$char_traits@D@std@@V?$allocator@D@2@@std@@V?$function@$$A6A_K_K@Z@2@@std@@PEAX@1@AEBV?$basic_string@DU?$char_traits@D@std@@V?$allocator@D@2@@1@@Z"
	movq	$0, -8(%rbp)
	movq	120(%rax), %rcx
	testq	%rcx, %rcx
	je	.LBB0_49
# %bb.47:                               #   in Loop: Header=BB0_40 Depth=1
	movq	(%rcx), %rax
.Ltmp32:
	leaq	-64(%rbp), %rdx
	callq	*(%rax)
.Ltmp33:
# %bb.48:                               #   in Loop: Header=BB0_40 Depth=1
	movq	%rax, -8(%rbp)
.LBB0_49:                               #   in Loop: Header=BB0_40 Depth=1
	movq	768(%rbp), %rsi
.Ltmp34:
	callq	clock
.Ltmp35:
# %bb.50:                               #   in Loop: Header=BB0_40 Depth=1
	movq	%rsi, (%rbp)
	movq	-8(%rbp), %rcx
	testq	%rcx, %rcx
	je	.LBB0_51
# %bb.84:                               #   in Loop: Header=BB0_40 Depth=1
	movl	%eax, %r13d
	movq	(%rcx), %rax
.Ltmp36:
	movq	%rbp, %rdx
	callq	*16(%rax)
.Ltmp37:
# %bb.85:                               #   in Loop: Header=BB0_40 Depth=1
.Ltmp38:
	movq	%rax, %r15
	callq	clock
.Ltmp39:
# %bb.86:                               #   in Loop: Header=BB0_40 Depth=1
.Ltmp40:
	movl	%eax, %r12d
	leaq	"?cout@std@@3V?$basic_ostream@DU?$char_traits@D@std@@@1@A"(%rip), %rcx
	leaq	"??_C@_06ELNAEDJO@Time?3?5?$AA@"(%rip), %rdx
	callq	"??$?6U?$char_traits@D@std@@@std@@YAAEAV?$basic_ostream@DU?$char_traits@D@std@@@0@AEAV10@PEBD@Z"
.Ltmp41:
# %bb.87:                               #   in Loop: Header=BB0_40 Depth=1
	movq	%rax, %rdi
	movq	(%rax), %rax
	movslq	4(%rax), %rax
	movl	24(%rdi,%rax), %ecx
	movl	$-12289, %edx                   # imm = 0xCFFF
	andl	%edx, %ecx
	orl	$8192, %ecx                     # imm = 0x2000
	movl	%ecx, 24(%rdi,%rax)
.Ltmp42:
	movl	$6, %edx
	movq	%rbp, %rcx
	callq	"?setprecision@std@@YA?AU?$_Smanip@_J@1@_J@Z"
.Ltmp43:
# %bb.88:                               #   in Loop: Header=BB0_40 Depth=1
	movq	8(%rbp), %rdx
	movq	(%rdi), %rax
	movslq	4(%rax), %rax
	movq	%rdi, %rcx
	addq	%rax, %rcx
.Ltmp44:
	callq	*(%rbp)
.Ltmp45:
# %bb.89:                               #   in Loop: Header=BB0_40 Depth=1
	subl	%r13d, %r12d
	cvtsi2sd	%r12d, %xmm1
	divsd	%xmm7, %xmm1
.Ltmp46:
	movq	%rdi, %rcx
	callq	"??6?$basic_ostream@DU?$char_traits@D@std@@@std@@QEAAAEAV01@N@Z"
.Ltmp47:
# %bb.90:                               #   in Loop: Header=BB0_40 Depth=1
.Ltmp48:
	movq	%rax, %rcx
	leaq	"??_C@_01EEMJAFIK@?6?$AA@"(%rip), %rdx
	callq	"??$?6U?$char_traits@D@std@@@std@@YAAEAV?$basic_ostream@DU?$char_traits@D@std@@@0@AEAV10@PEBD@Z"
.Ltmp49:
# %bb.91:                               #   in Loop: Header=BB0_40 Depth=1
.Ltmp50:
	leaq	"?cout@std@@3V?$basic_ostream@DU?$char_traits@D@std@@@1@A"(%rip), %rcx
	leaq	"??_C@_08FPNBJDNJ@Result?3?5?$AA@"(%rip), %rdx
	callq	"??$?6U?$char_traits@D@std@@@std@@YAAEAV?$basic_ostream@DU?$char_traits@D@std@@@0@AEAV10@PEBD@Z"
.Ltmp51:
# %bb.92:                               #   in Loop: Header=BB0_40 Depth=1
.Ltmp52:
	movq	%rax, %rcx
	movq	%r15, %rdx
	callq	"??6?$basic_ostream@DU?$char_traits@D@std@@@std@@QEAAAEAV01@_K@Z"
.Ltmp53:
# %bb.93:                               #   in Loop: Header=BB0_40 Depth=1
.Ltmp54:
	movq	%rax, %rcx
	leaq	"??_C@_01EEMJAFIK@?6?$AA@"(%rip), %rdx
	callq	"??$?6U?$char_traits@D@std@@@std@@YAAEAV?$basic_ostream@DU?$char_traits@D@std@@@0@AEAV10@PEBD@Z"
.Ltmp55:
# %bb.94:                               #   in Loop: Header=BB0_40 Depth=1
	movq	-8(%rbp), %rcx
	testq	%rcx, %rcx
	je	.LBB0_213
# %bb.95:                               #   in Loop: Header=BB0_40 Depth=1
	leaq	-64(%rbp), %rax
	cmpq	%rax, %rcx
	setne	%dl
	movq	(%rcx), %rax
	callq	*32(%rax)
	movq	$0, -8(%rbp)
	jmp	.LBB0_213
	.p2align	4, 0x90
.LBB0_99:                               #   in Loop: Header=BB0_40 Depth=1
	leaq	848(%rbp), %rcx
	movq	%r14, %rdx
	callq	"??$_Find@V?$basic_string@DU?$char_traits@D@std@@V?$allocator@D@2@@std@@@?$_Tree@V?$_Tmap_traits@V?$basic_string@DU?$char_traits@D@std@@V?$allocator@D@2@@std@@V?$function@$$A6A?AV?$basic_string@DU?$char_traits@D@std@@V?$allocator@D@2@@std@@V12@@Z@2@U?$less@V?$basic_string@DU?$char_traits@D@std@@V?$allocator@D@2@@std@@@2@V?$allocator@U?$pair@$$CBV?$basic_string@DU?$char_traits@D@std@@V?$allocator@D@2@@std@@V?$function@$$A6A?AV?$basic_string@DU?$char_traits@D@std@@V?$allocator@D@2@@std@@V12@@Z@2@@std@@@2@$0A@@std@@@std@@AEBAPEAU?$_Tree_node@U?$pair@$$CBV?$basic_string@DU?$char_traits@D@std@@V?$allocator@D@2@@std@@V?$function@$$A6A?AV?$basic_string@DU?$char_traits@D@std@@V?$allocator@D@2@@std@@V12@@Z@2@@std@@PEAX@1@AEBV?$basic_string@DU?$char_traits@D@std@@V?$allocator@D@2@@1@@Z"
	cmpq	848(%rbp), %rax
	je	.LBB0_212
# %bb.100:                              #   in Loop: Header=BB0_40 Depth=1
.Ltmp58:
	leaq	"?cout@std@@3V?$basic_ostream@DU?$char_traits@D@std@@@1@A"(%rip), %rcx
	leaq	"??_C@_0BA@BPMMHGPH@Set?5data?5file?3?5?$AA@"(%rip), %rdx
	callq	"??$?6U?$char_traits@D@std@@@std@@YAAEAV?$basic_ostream@DU?$char_traits@D@std@@@0@AEAV10@PEBD@Z"
.Ltmp59:
# %bb.101:                              #   in Loop: Header=BB0_40 Depth=1
	movq	$0, 704(%rbp)
	leaq	720(%rbp), %rax
	movups	%xmm6, (%rax)
	movq	$15, 728(%rbp)
	movb	$0, 704(%rbp)
	movq	$0, 720(%rbp)
.Ltmp60:
	movq	%rbx, %rcx
	leaq	704(%rbp), %rdx
	callq	"??$?5DU?$char_traits@D@std@@V?$allocator@D@1@@std@@YAAEAV?$basic_istream@DU?$char_traits@D@std@@@0@$$QEAV10@AEAV?$basic_string@DU?$char_traits@D@std@@V?$allocator@D@2@@0@@Z"
.Ltmp61:
# %bb.102:                              #   in Loop: Header=BB0_40 Depth=1
	cmpq	$16, 728(%rbp)
	leaq	704(%rbp), %rdx
	jb	.LBB0_104
# %bb.103:                              #   in Loop: Header=BB0_40 Depth=1
	movq	704(%rbp), %rdx
.LBB0_104:                              #   in Loop: Header=BB0_40 Depth=1
.Ltmp62:
	movl	$1, 32(%rsp)
	movq	%rbp, %rcx
	movl	$3, %r8d
	movl	$64, %r9d
	callq	"??0?$basic_fstream@DU?$char_traits@D@std@@@std@@QEAA@PEBDHH@Z"
.Ltmp63:
# %bb.105:                              #   in Loop: Header=BB0_40 Depth=1
	movq	(%rbp), %rax
	movslq	4(%rax), %rax
	testb	$6, 16(%rbp,%rax)
	je	.LBB0_107
# %bb.106:                              #   in Loop: Header=BB0_40 Depth=1
.Ltmp64:
	leaq	"?cerr@std@@3V?$basic_ostream@DU?$char_traits@D@std@@@1@A"(%rip), %rcx
	leaq	"??_C@_0BD@HMKJGHPF@Invalid?5file?5name?6?$AA@"(%rip), %rdx
	callq	"??$?6U?$char_traits@D@std@@@std@@YAAEAV?$basic_ostream@DU?$char_traits@D@std@@@0@AEAV10@PEBD@Z"
.Ltmp65:
	jmp	.LBB0_197
.LBB0_212:                              #   in Loop: Header=BB0_40 Depth=1
.Ltmp120:
	leaq	"?cout@std@@3V?$basic_ostream@DU?$char_traits@D@std@@@1@A"(%rip), %rcx
	leaq	"??_C@_0BA@LGNCCKPO@Uknown?5command?6?$AA@"(%rip), %rdx
	callq	"??$?6U?$char_traits@D@std@@@std@@YAAEAV?$basic_ostream@DU?$char_traits@D@std@@@0@AEAV10@PEBD@Z"
.Ltmp121:
	jmp	.LBB0_213
.LBB0_107:                              #   in Loop: Header=BB0_40 Depth=1
	movq	$0, 800(%rbp)
	leaq	816(%rbp), %rax
	movups	%xmm6, (%rax)
	movq	$15, 824(%rbp)
	movb	$0, 800(%rbp)
	movq	$0, 816(%rbp)
	movq	(%rbp), %rax
	movslq	4(%rax), %rax
	andl	$-2, 24(%rbp,%rax)
	jmp	.LBB0_108
	.p2align	4, 0x90
.LBB0_126:                              #   in Loop: Header=BB0_108 Depth=2
	addq	$40, %rax
	movq	%rax, %rdx
	movq	%r8, %rcx
.LBB0_127:                              #   in Loop: Header=BB0_108 Depth=2
	callq	"??3@YAXPEAX_K@Z"
.LBB0_128:                              #   in Loop: Header=BB0_108 Depth=2
	movups	768(%rbp), %xmm0
	movupd	784(%rbp), %xmm1
	movaps	%xmm0, 800(%rbp)
	movapd	%xmm1, 816(%rbp)
.LBB0_108:                              #   Parent Loop BB0_40 Depth=1
                                        # =>  This Inner Loop Header: Depth=2
	movq	%rbx, %r12
	movq	(%rbp), %rax
	movslq	4(%rax), %rax
	testb	$1, 16(%rbp,%rax)
	jne	.LBB0_129
# %bb.109:                              #   in Loop: Header=BB0_108 Depth=2
.Ltmp110:
	movq	%rbp, %rcx
	leaq	884(%rbp), %rdx
	callq	"??$?5DU?$char_traits@D@std@@@std@@YAAEAV?$basic_istream@DU?$char_traits@D@std@@@0@AEAV10@AEAD@Z"
.Ltmp111:
# %bb.110:                              #   in Loop: Header=BB0_108 Depth=2
	movq	816(%rbp), %r15
	movabsq	$9223372036854775807, %rax      # imm = 0x7FFFFFFFFFFFFFFF
	cmpq	%rax, %r15
	je	.LBB0_111
# %bb.113:                              #   in Loop: Header=BB0_108 Depth=2
	movzbl	884(%rbp), %eax
	movb	%al, 885(%rbp)                  # 1-byte Spill
	movq	800(%rbp), %r13
	movq	824(%rbp), %rbx
	movq	$0, 768(%rbp)
	leaq	784(%rbp), %rax
	movups	%xmm6, (%rax)
	leaq	1(%r15), %r14
	movl	$15, %esi
	leaq	768(%rbp), %rdi
	cmpq	$16, %r14
	jb	.LBB0_120
# %bb.114:                              #   in Loop: Header=BB0_108 Depth=2
	movq	%r14, %rsi
	orq	$15, %rsi
	cmpq	$23, %rsi
	movl	$22, %eax
	cmovbq	%rax, %rsi
	movabsq	$9223372036854775807, %rax      # imm = 0x7FFFFFFFFFFFFFFF
	cmpq	%rax, %rsi
	cmovaeq	%rax, %rsi
	cmpq	$4095, %rsi                     # imm = 0xFFF
	jb	.LBB0_117
# %bb.115:                              #   in Loop: Header=BB0_108 Depth=2
	leaq	40(%rsi), %rcx
.Ltmp114:
	callq	"??2@YAPEAX_K@Z"
.Ltmp115:
# %bb.116:                              #   in Loop: Header=BB0_108 Depth=2
	movq	%rax, %rdi
	addq	$39, %rdi
	andq	$-32, %rdi
	movq	%rax, -8(%rdi)
	jmp	.LBB0_119
	.p2align	4, 0x90
.LBB0_117:                              #   in Loop: Header=BB0_108 Depth=2
	leaq	1(%rsi), %rcx
.Ltmp112:
	callq	"??2@YAPEAX_K@Z"
.Ltmp113:
# %bb.118:                              #   in Loop: Header=BB0_108 Depth=2
	movq	%rax, %rdi
.LBB0_119:                              #   in Loop: Header=BB0_108 Depth=2
	movq	%rdi, 768(%rbp)
.LBB0_120:                              #   in Loop: Header=BB0_108 Depth=2
	cmpq	$16, %rbx
	leaq	800(%rbp), %rax
	cmovbq	%rax, %r13
	movq	%r14, 784(%rbp)
	movq	%rsi, 792(%rbp)
	movq	%rdi, %rcx
	movq	%r13, %rdx
	movq	%r15, %r8
	callq	memcpy
	movzbl	885(%rbp), %eax                 # 1-byte Folded Reload
	movb	%al, (%rdi,%r15)
	movb	$0, 1(%rdi,%r15)
	movq	824(%rbp), %rax
	cmpq	$16, %rax
	movq	%r12, %rbx
	jb	.LBB0_128
# %bb.121:                              #   in Loop: Header=BB0_108 Depth=2
	movq	800(%rbp), %rcx
	leaq	1(%rax), %rdx
	cmpq	$4096, %rdx                     # imm = 0x1000
	jb	.LBB0_127
# %bb.122:                              #   in Loop: Header=BB0_108 Depth=2
	movq	-8(%rcx), %r8
	addq	$-8, %rcx
	subq	%r8, %rcx
	cmpq	$32, %rcx
	jb	.LBB0_126
	jmp	.LBB0_123
.LBB0_129:                              #   in Loop: Header=BB0_40 Depth=1
.Ltmp66:
	movq	%rbp, %rcx
	callq	"?close@?$basic_fstream@DU?$char_traits@D@std@@@std@@QEAAXXZ"
.Ltmp67:
# %bb.130:                              #   in Loop: Header=BB0_40 Depth=1
	leaq	848(%rbp), %rcx
	leaq	672(%rbp), %r14
	movq	%r14, %rdx
	callq	"??$_Find@V?$basic_string@DU?$char_traits@D@std@@V?$allocator@D@2@@std@@@?$_Tree@V?$_Tmap_traits@V?$basic_string@DU?$char_traits@D@std@@V?$allocator@D@2@@std@@V?$function@$$A6A?AV?$basic_string@DU?$char_traits@D@std@@V?$allocator@D@2@@std@@V12@@Z@2@U?$less@V?$basic_string@DU?$char_traits@D@std@@V?$allocator@D@2@@std@@@2@V?$allocator@U?$pair@$$CBV?$basic_string@DU?$char_traits@D@std@@V?$allocator@D@2@@std@@V?$function@$$A6A?AV?$basic_string@DU?$char_traits@D@std@@V?$allocator@D@2@@std@@V12@@Z@2@@std@@@2@$0A@@std@@@std@@AEBAPEAU?$_Tree_node@U?$pair@$$CBV?$basic_string@DU?$char_traits@D@std@@V?$allocator@D@2@@std@@V?$function@$$A6A?AV?$basic_string@DU?$char_traits@D@std@@V?$allocator@D@2@@std@@V12@@Z@2@@std@@PEAX@1@AEBV?$basic_string@DU?$char_traits@D@std@@V?$allocator@D@2@@1@@Z"
	movq	$0, 632(%rbp)
	movq	120(%rax), %rcx
	testq	%rcx, %rcx
	je	.LBB0_133
# %bb.131:                              #   in Loop: Header=BB0_40 Depth=1
	movq	(%rcx), %rax
.Ltmp68:
	leaq	576(%rbp), %rdx
	callq	*(%rax)
.Ltmp69:
# %bb.132:                              #   in Loop: Header=BB0_40 Depth=1
	movq	%rax, 632(%rbp)
.LBB0_133:                              #   in Loop: Header=BB0_40 Depth=1
	movq	$0, 736(%rbp)
	leaq	752(%rbp), %rax
	movups	%xmm6, (%rax)
	cmpq	$16, 824(%rbp)
	leaq	800(%rbp), %r15
	jb	.LBB0_135
# %bb.134:                              #   in Loop: Header=BB0_40 Depth=1
	movq	800(%rbp), %r15
.LBB0_135:                              #   in Loop: Header=BB0_40 Depth=1
	movq	816(%rbp), %rsi
	cmpq	$15, %rsi
	ja	.LBB0_140
# %bb.136:                              #   in Loop: Header=BB0_40 Depth=1
	movups	(%r15), %xmm0
	movaps	%xmm0, 736(%rbp)
	movq	%rsi, 752(%rbp)
	movq	$15, 760(%rbp)
	movq	%r12, %rbx
	jmp	.LBB0_145
.LBB0_140:                              #   in Loop: Header=BB0_40 Depth=1
	movq	%rsi, %rdi
	orq	$15, %rdi
	movabsq	$9223372036854775807, %rax      # imm = 0x7FFFFFFFFFFFFFFF
	cmpq	%rax, %rdi
	cmovaeq	%rax, %rdi
	cmpq	$4095, %rdi                     # imm = 0xFFF
	movq	%r12, %rbx
	jb	.LBB0_143
# %bb.141:                              #   in Loop: Header=BB0_40 Depth=1
	leaq	40(%rdi), %rcx
.Ltmp72:
	callq	"??2@YAPEAX_K@Z"
.Ltmp73:
# %bb.142:                              #   in Loop: Header=BB0_40 Depth=1
	movq	%rax, %rcx
	addq	$39, %rax
	andq	$-32, %rax
	movq	%rcx, -8(%rax)
	jmp	.LBB0_144
.LBB0_143:                              #   in Loop: Header=BB0_40 Depth=1
	leaq	1(%rdi), %rcx
.Ltmp70:
	callq	"??2@YAPEAX_K@Z"
.Ltmp71:
.LBB0_144:                              #   in Loop: Header=BB0_40 Depth=1
	movq	%rax, 736(%rbp)
	leaq	1(%rsi), %r8
	movq	%rax, %rcx
	movq	%r15, %rdx
	callq	memcpy
	movq	%rsi, 752(%rbp)
	movq	%rdi, 760(%rbp)
.LBB0_145:                              #   in Loop: Header=BB0_40 Depth=1
.Ltmp74:
	callq	clock
.Ltmp75:
# %bb.146:                              #   in Loop: Header=BB0_40 Depth=1
	movl	%eax, %r15d
	movq	$0, 640(%rbp)
	leaq	656(%rbp), %rax
	movups	%xmm6, (%rax)
	cmpq	$16, 760(%rbp)
	leaq	736(%rbp), %r13
	jb	.LBB0_148
# %bb.147:                              #   in Loop: Header=BB0_40 Depth=1
	movq	736(%rbp), %r13
.LBB0_148:                              #   in Loop: Header=BB0_40 Depth=1
	movq	752(%rbp), %rsi
	cmpq	$15, %rsi
	ja	.LBB0_150
# %bb.149:                              #   in Loop: Header=BB0_40 Depth=1
	movups	(%r13), %xmm0
	movaps	%xmm0, 640(%rbp)
	movq	%rsi, 656(%rbp)
	movq	$15, 664(%rbp)
	jmp	.LBB0_155
.LBB0_150:                              #   in Loop: Header=BB0_40 Depth=1
	movq	%rsi, %rdi
	orq	$15, %rdi
	movabsq	$9223372036854775807, %rax      # imm = 0x7FFFFFFFFFFFFFFF
	cmpq	%rax, %rdi
	cmovaeq	%rax, %rdi
	cmpq	$4095, %rdi                     # imm = 0xFFF
	jb	.LBB0_153
# %bb.151:                              #   in Loop: Header=BB0_40 Depth=1
	leaq	40(%rdi), %rcx
.Ltmp78:
	callq	"??2@YAPEAX_K@Z"
.Ltmp79:
# %bb.152:                              #   in Loop: Header=BB0_40 Depth=1
	movq	%rax, %rcx
	addq	$39, %rax
	andq	$-32, %rax
	movq	%rcx, -8(%rax)
	jmp	.LBB0_154
.LBB0_153:                              #   in Loop: Header=BB0_40 Depth=1
	leaq	1(%rdi), %rcx
.Ltmp76:
	callq	"??2@YAPEAX_K@Z"
.Ltmp77:
.LBB0_154:                              #   in Loop: Header=BB0_40 Depth=1
	movq	%rax, 640(%rbp)
	leaq	1(%rsi), %r8
	movq	%rax, %rcx
	movq	%r13, %rdx
	callq	memcpy
	movq	%rsi, 656(%rbp)
	movq	%rdi, 664(%rbp)
.LBB0_155:                              #   in Loop: Header=BB0_40 Depth=1
.Ltmp80:
	leaq	576(%rbp), %rcx
	leaq	768(%rbp), %rdx
	leaq	640(%rbp), %r8
	callq	"??R?$_Func_class@V?$basic_string@DU?$char_traits@D@std@@V?$allocator@D@2@@std@@V12@@std@@QEBA?AV?$basic_string@DU?$char_traits@D@std@@V?$allocator@D@2@@1@V21@@Z"
.Ltmp81:
# %bb.156:                              #   in Loop: Header=BB0_40 Depth=1
.Ltmp82:
	callq	clock
.Ltmp83:
# %bb.157:                              #   in Loop: Header=BB0_40 Depth=1
.Ltmp84:
	movl	%eax, %r12d
	leaq	"?cout@std@@3V?$basic_ostream@DU?$char_traits@D@std@@@1@A"(%rip), %rcx
	leaq	"??_C@_06ELNAEDJO@Time?3?5?$AA@"(%rip), %rdx
	callq	"??$?6U?$char_traits@D@std@@@std@@YAAEAV?$basic_ostream@DU?$char_traits@D@std@@@0@AEAV10@PEBD@Z"
.Ltmp85:
# %bb.158:                              #   in Loop: Header=BB0_40 Depth=1
	movq	%rax, %rdi
	movq	(%rax), %rax
	movslq	4(%rax), %rax
	movl	24(%rdi,%rax), %ecx
	movl	$-12289, %edx                   # imm = 0xCFFF
	andl	%edx, %ecx
	orl	$8192, %ecx                     # imm = 0x2000
	movl	%ecx, 24(%rdi,%rax)
.Ltmp86:
	movl	$6, %edx
	leaq	-80(%rbp), %rcx
	callq	"?setprecision@std@@YA?AU?$_Smanip@_J@1@_J@Z"
.Ltmp87:
# %bb.159:                              #   in Loop: Header=BB0_40 Depth=1
	movq	-72(%rbp), %rdx
	movq	(%rdi), %rax
	movslq	4(%rax), %rax
	movq	%rdi, %rcx
	addq	%rax, %rcx
.Ltmp88:
	callq	*-80(%rbp)
.Ltmp89:
# %bb.160:                              #   in Loop: Header=BB0_40 Depth=1
	subl	%r15d, %r12d
	cvtsi2sd	%r12d, %xmm1
	divsd	%xmm7, %xmm1
.Ltmp90:
	movq	%rdi, %rcx
	callq	"??6?$basic_ostream@DU?$char_traits@D@std@@@std@@QEAAAEAV01@N@Z"
.Ltmp91:
# %bb.161:                              #   in Loop: Header=BB0_40 Depth=1
.Ltmp92:
	movq	%rax, %rcx
	leaq	"??_C@_01EEMJAFIK@?6?$AA@"(%rip), %rdx
	callq	"??$?6U?$char_traits@D@std@@@std@@YAAEAV?$basic_ostream@DU?$char_traits@D@std@@@0@AEAV10@PEBD@Z"
.Ltmp93:
# %bb.162:                              #   in Loop: Header=BB0_40 Depth=1
.Ltmp94:
	leaq	"?cout@std@@3V?$basic_ostream@DU?$char_traits@D@std@@@1@A"(%rip), %rcx
	leaq	"??_C@_08FPNBJDNJ@Result?3?5?$AA@"(%rip), %rdx
	callq	"??$?6U?$char_traits@D@std@@@std@@YAAEAV?$basic_ostream@DU?$char_traits@D@std@@@0@AEAV10@PEBD@Z"
.Ltmp95:
# %bb.163:                              #   in Loop: Header=BB0_40 Depth=1
	cmpq	$16, 792(%rbp)
	leaq	768(%rbp), %rdx
	jb	.LBB0_165
# %bb.164:                              #   in Loop: Header=BB0_40 Depth=1
	movq	768(%rbp), %rdx
.LBB0_165:                              #   in Loop: Header=BB0_40 Depth=1
.Ltmp96:
	movq	784(%rbp), %r8
	movq	%rax, %rcx
	callq	"??$_Insert_string@DU?$char_traits@D@std@@_K@std@@YAAEAV?$basic_ostream@DU?$char_traits@D@std@@@0@AEAV10@QEBD_K@Z"
.Ltmp97:
# %bb.166:                              #   in Loop: Header=BB0_40 Depth=1
.Ltmp98:
	movq	%rax, %rcx
	leaq	"??_C@_01EEMJAFIK@?6?$AA@"(%rip), %rdx
	callq	"??$?6U?$char_traits@D@std@@@std@@YAAEAV?$basic_ostream@DU?$char_traits@D@std@@@0@AEAV10@PEBD@Z"
.Ltmp99:
# %bb.167:                              #   in Loop: Header=BB0_40 Depth=1
	movq	792(%rbp), %rax
	cmpq	$16, %rax
	jb	.LBB0_175
# %bb.168:                              #   in Loop: Header=BB0_40 Depth=1
	movq	768(%rbp), %rcx
	leaq	1(%rax), %rdx
	cmpq	$4096, %rdx                     # imm = 0x1000
	jb	.LBB0_174
# %bb.169:                              #   in Loop: Header=BB0_40 Depth=1
	movq	-8(%rcx), %r8
	addq	$-8, %rcx
	subq	%r8, %rcx
	cmpq	$32, %rcx
	jae	.LBB0_170
# %bb.173:                              #   in Loop: Header=BB0_40 Depth=1
	addq	$40, %rax
	movq	%rax, %rdx
	movq	%r8, %rcx
.LBB0_174:                              #   in Loop: Header=BB0_40 Depth=1
	callq	"??3@YAXPEAX_K@Z"
.LBB0_175:                              #   in Loop: Header=BB0_40 Depth=1
	movq	760(%rbp), %rax
	cmpq	$16, %rax
	jb	.LBB0_183
# %bb.176:                              #   in Loop: Header=BB0_40 Depth=1
	movq	736(%rbp), %rcx
	leaq	1(%rax), %rdx
	cmpq	$4096, %rdx                     # imm = 0x1000
	jb	.LBB0_182
# %bb.177:                              #   in Loop: Header=BB0_40 Depth=1
	movq	-8(%rcx), %r8
	addq	$-8, %rcx
	subq	%r8, %rcx
	cmpq	$32, %rcx
	jae	.LBB0_178
# %bb.181:                              #   in Loop: Header=BB0_40 Depth=1
	addq	$40, %rax
	movq	%rax, %rdx
	movq	%r8, %rcx
.LBB0_182:                              #   in Loop: Header=BB0_40 Depth=1
	callq	"??3@YAXPEAX_K@Z"
.LBB0_183:                              #   in Loop: Header=BB0_40 Depth=1
	movq	$0, 752(%rbp)
	movq	$15, 760(%rbp)
	movb	$0, 736(%rbp)
	movq	632(%rbp), %rcx
	testq	%rcx, %rcx
	je	.LBB0_185
# %bb.184:                              #   in Loop: Header=BB0_40 Depth=1
	leaq	576(%rbp), %rax
	cmpq	%rax, %rcx
	setne	%dl
	movq	(%rcx), %rax
	callq	*32(%rax)
	movq	$0, 632(%rbp)
.LBB0_185:                              #   in Loop: Header=BB0_40 Depth=1
	movq	824(%rbp), %rax
	cmpq	$16, %rax
	jb	.LBB0_197
# %bb.186:                              #   in Loop: Header=BB0_40 Depth=1
	movq	800(%rbp), %rcx
	leaq	1(%rax), %rdx
	cmpq	$4096, %rdx                     # imm = 0x1000
	jb	.LBB0_196
# %bb.187:                              #   in Loop: Header=BB0_40 Depth=1
	movq	-8(%rcx), %r8
	addq	$-8, %rcx
	subq	%r8, %rcx
	cmpq	$32, %rcx
	jae	.LBB0_188
# %bb.195:                              #   in Loop: Header=BB0_40 Depth=1
	addq	$40, %rax
	movq	%rax, %rdx
	movq	%r8, %rcx
.LBB0_196:                              #   in Loop: Header=BB0_40 Depth=1
	callq	"??3@YAXPEAX_K@Z"
.LBB0_197:                              #   in Loop: Header=BB0_40 Depth=1
	movq	(%rbp), %rax
	movslq	4(%rax), %rax
	leaq	"??_7?$basic_fstream@DU?$char_traits@D@std@@@std@@6B@"(%rip), %rcx
	movq	%rcx, (%rbp,%rax)
	movq	(%rbp), %rax
	movslq	4(%rax), %rax
	leal	-184(%rax), %ecx
	movl	%ecx, -4(%rbp,%rax)
	leaq	24(%rbp), %rcx
	callq	"??1?$basic_filebuf@DU?$char_traits@D@std@@@std@@UEAA@XZ"
	leaq	"??_7ios_base@std@@6B@"(%rip), %rax
	movq	%rax, 184(%rbp)
.Ltmp106:
	leaq	184(%rbp), %rcx
	callq	"?_Ios_base_dtor@ios_base@std@@CAXPEAV12@@Z"
.Ltmp107:
# %bb.198:                              #   in Loop: Header=BB0_40 Depth=1
	movq	728(%rbp), %rax
	cmpq	$16, %rax
	jb	.LBB0_213
# %bb.199:                              #   in Loop: Header=BB0_40 Depth=1
	movq	704(%rbp), %rcx
	leaq	1(%rax), %rdx
	cmpq	$4096, %rdx                     # imm = 0x1000
	jb	.LBB0_205
# %bb.200:                              #   in Loop: Header=BB0_40 Depth=1
	movq	-8(%rcx), %r8
	addq	$-8, %rcx
	subq	%r8, %rcx
	cmpq	$32, %rcx
	jae	.LBB0_201
# %bb.204:                              #   in Loop: Header=BB0_40 Depth=1
	addq	$40, %rax
	movq	%rax, %rdx
	movq	%r8, %rcx
.LBB0_205:                              #   in Loop: Header=BB0_40 Depth=1
	callq	"??3@YAXPEAX_K@Z"
	.p2align	4, 0x90
.LBB0_213:                              #   in Loop: Header=BB0_40 Depth=1
	movq	696(%rbp), %rax
	cmpq	$16, %rax
	jb	.LBB0_40
# %bb.214:                              #   in Loop: Header=BB0_40 Depth=1
	movq	672(%rbp), %rcx
	leaq	1(%rax), %rdx
	cmpq	$4096, %rdx                     # imm = 0x1000
	jb	.LBB0_220
# %bb.215:                              #   in Loop: Header=BB0_40 Depth=1
	movq	-8(%rcx), %r8
	addq	$-8, %rcx
	subq	%r8, %rcx
	cmpq	$32, %rcx
	jb	.LBB0_219
# %bb.216:
.Ltmp122:
	callq	_invalid_parameter_noinfo_noreturn
.Ltmp123:
# %bb.217:
.LBB0_222:
	movq	848(%rbp), %rax
	movq	8(%rax), %r8
	leaq	848(%rbp), %rcx
	movq	%rcx, %rdx
	callq	"??$_Erase_tree@V?$allocator@U?$_Tree_node@U?$pair@$$CBV?$basic_string@DU?$char_traits@D@std@@V?$allocator@D@2@@std@@V?$function@$$A6A?AV?$basic_string@DU?$char_traits@D@std@@V?$allocator@D@2@@std@@V12@@Z@2@@std@@PEAX@std@@@std@@@?$_Tree_val@U?$_Tree_simple_types@U?$pair@$$CBV?$basic_string@DU?$char_traits@D@std@@V?$allocator@D@2@@std@@V?$function@$$A6A?AV?$basic_string@DU?$char_traits@D@std@@V?$allocator@D@2@@std@@V12@@Z@2@@std@@@std@@@std@@QEAAXAEAV?$allocator@U?$_Tree_node@U?$pair@$$CBV?$basic_string@DU?$char_traits@D@std@@V?$allocator@D@2@@std@@V?$function@$$A6A?AV?$basic_string@DU?$char_traits@D@std@@V?$allocator@D@2@@std@@V12@@Z@2@@std@@PEAX@std@@@1@PEAU?$_Tree_node@U?$pair@$$CBV?$basic_string@DU?$char_traits@D@std@@V?$allocator@D@2@@std@@V?$function@$$A6A?AV?$basic_string@DU?$char_traits@D@std@@V?$allocator@D@2@@std@@V12@@Z@2@@std@@PEAX@1@@Z"
	movq	848(%rbp), %rcx
	movl	$128, %edx
	callq	"??3@YAXPEAX_K@Z"
	movq	832(%rbp), %rax
	movq	8(%rax), %r8
	leaq	832(%rbp), %rcx
	movq	%rcx, %rdx
	callq	"??$_Erase_tree@V?$allocator@U?$_Tree_node@U?$pair@$$CBV?$basic_string@DU?$char_traits@D@std@@V?$allocator@D@2@@std@@V?$function@$$A6A_K_K@Z@2@@std@@PEAX@std@@@std@@@?$_Tree_val@U?$_Tree_simple_types@U?$pair@$$CBV?$basic_string@DU?$char_traits@D@std@@V?$allocator@D@2@@std@@V?$function@$$A6A_K_K@Z@2@@std@@@std@@@std@@QEAAXAEAV?$allocator@U?$_Tree_node@U?$pair@$$CBV?$basic_string@DU?$char_traits@D@std@@V?$allocator@D@2@@std@@V?$function@$$A6A_K_K@Z@2@@std@@PEAX@std@@@1@PEAU?$_Tree_node@U?$pair@$$CBV?$basic_string@DU?$char_traits@D@std@@V?$allocator@D@2@@std@@V?$function@$$A6A_K_K@Z@2@@std@@PEAX@1@@Z"
	movq	832(%rbp), %rcx
	movl	$128, %edx
	callq	"??3@YAXPEAX_K@Z"
	xorl	%eax, %eax
	movaps	896(%rbp), %xmm6                # 16-byte Reload
	movaps	912(%rbp), %xmm7                # 16-byte Reload
	addq	$1064, %rsp                     # imm = 0x428
	popq	%rbx
	popq	%rdi
	popq	%rsi
	popq	%r12
	popq	%r13
	popq	%r14
	popq	%r15
	popq	%rbp
	retq
.LBB0_111:
.Ltmp118:
	callq	"?_Xlen_string@std@@YAXXZ"
.Ltmp119:
# %bb.112:
.LBB0_123:
.Ltmp116:
	callq	_invalid_parameter_noinfo_noreturn
.Ltmp117:
# %bb.124:
.LBB0_51:
.Ltmp56:
	callq	"?_Xbad_function_call@std@@YAXXZ"
.Ltmp57:
# %bb.83:
.LBB0_201:
.Ltmp108:
	callq	_invalid_parameter_noinfo_noreturn
.Ltmp109:
# %bb.202:
.LBB0_170:
.Ltmp100:
	callq	_invalid_parameter_noinfo_noreturn
.Ltmp101:
# %bb.171:
.LBB0_188:
.Ltmp104:
	callq	_invalid_parameter_noinfo_noreturn
.Ltmp105:
# %bb.189:
.LBB0_178:
.Ltmp102:
	callq	_invalid_parameter_noinfo_noreturn
.Ltmp103:
# %bb.179:
	int3
	.seh_handlerdata
	.long	($cppxdata$main)@IMGREL
	.text
	.seh_endproc
	.def	"?dtor$18@?0?main@4HA";
	.scl	3;
	.type	32;
	.endef
	.p2align	4, 0x90
"?dtor$18@?0?main@4HA":
.seh_proc "?dtor$18@?0?main@4HA"
.LBB0_18:
	movq	%rdx, 16(%rsp)
	pushq	%rbp
	.seh_pushreg %rbp
	pushq	%r15
	.seh_pushreg %r15
	pushq	%r14
	.seh_pushreg %r14
	pushq	%r13
	.seh_pushreg %r13
	pushq	%r12
	.seh_pushreg %r12
	pushq	%rsi
	.seh_pushreg %rsi
	pushq	%rdi
	.seh_pushreg %rdi
	pushq	%rbx
	.seh_pushreg %rbx
	subq	$72, %rsp
	.seh_stackalloc 72
	leaq	128(%rdx), %rbp
	movapd	%xmm7, 32(%rsp)                 # 16-byte Spill
	.seh_savexmm %xmm7, 32
	movaps	%xmm6, 48(%rsp)                 # 16-byte Spill
	.seh_savexmm %xmm6, 48
	.seh_endprologue
	callq	__std_terminate
	int3
	.seh_handlerdata
	.text
	.seh_endproc
	.def	"?dtor$35@?0?main@4HA";
	.scl	3;
	.type	32;
	.endef
	.p2align	4, 0x90
"?dtor$35@?0?main@4HA":
.seh_proc "?dtor$35@?0?main@4HA"
.LBB0_35:
	movq	%rdx, 16(%rsp)
	pushq	%rbp
	.seh_pushreg %rbp
	pushq	%r15
	.seh_pushreg %r15
	pushq	%r14
	.seh_pushreg %r14
	pushq	%r13
	.seh_pushreg %r13
	pushq	%r12
	.seh_pushreg %r12
	pushq	%rsi
	.seh_pushreg %rsi
	pushq	%rdi
	.seh_pushreg %rdi
	pushq	%rbx
	.seh_pushreg %rbx
	subq	$72, %rsp
	.seh_stackalloc 72
	leaq	128(%rdx), %rbp
	movapd	%xmm7, 32(%rsp)                 # 16-byte Spill
	.seh_savexmm %xmm7, 32
	movaps	%xmm6, 48(%rsp)                 # 16-byte Spill
	.seh_savexmm %xmm6, 48
	.seh_endprologue
	callq	__std_terminate
	int3
	.seh_handlerdata
	.text
	.seh_endproc
	.def	"?dtor$52@?0?main@4HA";
	.scl	3;
	.type	32;
	.endef
	.p2align	4, 0x90
"?dtor$52@?0?main@4HA":
.seh_proc "?dtor$52@?0?main@4HA"
.LBB0_52:
	movq	%rdx, 16(%rsp)
	pushq	%rbp
	.seh_pushreg %rbp
	pushq	%r15
	.seh_pushreg %r15
	pushq	%r14
	.seh_pushreg %r14
	pushq	%r13
	.seh_pushreg %r13
	pushq	%r12
	.seh_pushreg %r12
	pushq	%rsi
	.seh_pushreg %rsi
	pushq	%rdi
	.seh_pushreg %rdi
	pushq	%rbx
	.seh_pushreg %rbx
	subq	$72, %rsp
	.seh_stackalloc 72
	leaq	128(%rdx), %rbp
	movapd	%xmm7, 32(%rsp)                 # 16-byte Spill
	.seh_savexmm %xmm7, 32
	movaps	%xmm6, 48(%rsp)                 # 16-byte Spill
	.seh_savexmm %xmm6, 48
	.seh_endprologue
	xorl	%esi, %esi
	leaq	512(%rbp), %rdi
	jmp	.LBB0_53
	.p2align	4, 0x90
.LBB0_59:                               #   in Loop: Header=BB0_53 Depth=1
	callq	"??3@YAXPEAX_K@Z"
.LBB0_60:                               #   in Loop: Header=BB0_53 Depth=1
	movq	$0, 496(%rbp,%rsi)
	movq	$15, 504(%rbp,%rsi)
	movb	$0, 480(%rbp,%rsi)
	addq	$-96, %rsi
	cmpq	$-576, %rsi                     # imm = 0xFDC0
	je	.LBB0_61
.LBB0_53:                               # =>This Inner Loop Header: Depth=1
	movq	568(%rbp,%rsi), %rcx
	testq	%rcx, %rcx
	je	.LBB0_55
# %bb.54:                               #   in Loop: Header=BB0_53 Depth=1
	leaq	(%rdi,%rsi), %rax
	cmpq	%rcx, %rax
	setne	%dl
	movq	(%rcx), %rax
	callq	*32(%rax)
	movq	$0, 568(%rbp,%rsi)
.LBB0_55:                               #   in Loop: Header=BB0_53 Depth=1
	movq	504(%rbp,%rsi), %rax
	cmpq	$16, %rax
	jb	.LBB0_60
# %bb.56:                               #   in Loop: Header=BB0_53 Depth=1
	movq	480(%rbp,%rsi), %rcx
	leaq	1(%rax), %rdx
	cmpq	$4096, %rdx                     # imm = 0x1000
	jb	.LBB0_59
# %bb.57:                               #   in Loop: Header=BB0_53 Depth=1
	movq	-8(%rcx), %r8
	addq	$-8, %rcx
	subq	%r8, %rcx
	cmpq	$32, %rcx
	jae	.LBB0_226
# %bb.58:                               #   in Loop: Header=BB0_53 Depth=1
	addq	$40, %rax
	movq	%rax, %rdx
	movq	%r8, %rcx
	jmp	.LBB0_59
.LBB0_61:
	leaq	480(%rbp), %rax
	movq	%rax, 872(%rbp)
	movb	$1, 887(%rbp)
	movaps	48(%rsp), %xmm6                 # 16-byte Reload
	movapd	32(%rsp), %xmm7                 # 16-byte Reload
	addq	$72, %rsp
	popq	%rbx
	popq	%rdi
	popq	%rsi
	popq	%r12
	popq	%r13
	popq	%r14
	popq	%r15
	popq	%rbp
	retq                                    # CLEANUPRET
.LBB0_226:
	callq	_invalid_parameter_noinfo_noreturn
	int3
	.seh_handlerdata
	.text
	.seh_endproc
	.def	"?dtor$62@?0?main@4HA";
	.scl	3;
	.type	32;
	.endef
	.p2align	4, 0x90
"?dtor$62@?0?main@4HA":
.seh_proc "?dtor$62@?0?main@4HA"
.LBB0_62:
	movq	%rdx, 16(%rsp)
	pushq	%rbp
	.seh_pushreg %rbp
	pushq	%r15
	.seh_pushreg %r15
	pushq	%r14
	.seh_pushreg %r14
	pushq	%r13
	.seh_pushreg %r13
	pushq	%r12
	.seh_pushreg %r12
	pushq	%rsi
	.seh_pushreg %rsi
	pushq	%rdi
	.seh_pushreg %rdi
	pushq	%rbx
	.seh_pushreg %rbx
	subq	$72, %rsp
	.seh_stackalloc 72
	leaq	128(%rdx), %rbp
	movapd	%xmm7, 32(%rsp)                 # 16-byte Spill
	.seh_savexmm %xmm7, 32
	movaps	%xmm6, 48(%rsp)                 # 16-byte Spill
	.seh_savexmm %xmm6, 48
	.seh_endprologue
	movq	872(%rbp), %rsi
	movq	%rbp, %rdi
	cmpq	%rsi, %rdi
	sete	%al
	cmpb	$0, 887(%rbp)
	jne	.LBB0_65
# %bb.63:
	testb	%al, %al
	jne	.LBB0_65
.LBB0_64:                               # =>This Inner Loop Header: Depth=1
	addq	$-96, %rsi
	movq	%rsi, %rcx
	callq	"??1?$pair@$$CBV?$basic_string@DU?$char_traits@D@std@@V?$allocator@D@2@@std@@V?$function@$$A6A_K_K@Z@2@@std@@QEAA@XZ"
	cmpq	%rdi, %rsi
	jne	.LBB0_64
.LBB0_65:
	movaps	48(%rsp), %xmm6                 # 16-byte Reload
	movaps	32(%rsp), %xmm7                 # 16-byte Reload
	addq	$72, %rsp
	popq	%rbx
	popq	%rdi
	popq	%rsi
	popq	%r12
	popq	%r13
	popq	%r14
	popq	%r15
	popq	%rbp
	retq                                    # CLEANUPRET
	.seh_handlerdata
	.text
	.seh_endproc
	.def	"?dtor$66@?0?main@4HA";
	.scl	3;
	.type	32;
	.endef
	.p2align	4, 0x90
"?dtor$66@?0?main@4HA":
.seh_proc "?dtor$66@?0?main@4HA"
.LBB0_66:
	movq	%rdx, 16(%rsp)
	pushq	%rbp
	.seh_pushreg %rbp
	pushq	%r15
	.seh_pushreg %r15
	pushq	%r14
	.seh_pushreg %r14
	pushq	%r13
	.seh_pushreg %r13
	pushq	%r12
	.seh_pushreg %r12
	pushq	%rsi
	.seh_pushreg %rsi
	pushq	%rdi
	.seh_pushreg %rdi
	pushq	%rbx
	.seh_pushreg %rbx
	subq	$72, %rsp
	.seh_stackalloc 72
	leaq	128(%rdx), %rbp
	movapd	%xmm7, 32(%rsp)                 # 16-byte Spill
	.seh_savexmm %xmm7, 32
	movaps	%xmm6, 48(%rsp)                 # 16-byte Spill
	.seh_savexmm %xmm6, 48
	.seh_endprologue
	xorl	%esi, %esi
	leaq	224(%rbp), %rdi
	jmp	.LBB0_67
	.p2align	4, 0x90
.LBB0_73:                               #   in Loop: Header=BB0_67 Depth=1
	callq	"??3@YAXPEAX_K@Z"
.LBB0_74:                               #   in Loop: Header=BB0_67 Depth=1
	movq	$0, 208(%rbp,%rsi)
	movq	$15, 216(%rbp,%rsi)
	movb	$0, 192(%rbp,%rsi)
	addq	$-96, %rsi
	cmpq	$-288, %rsi                     # imm = 0xFEE0
	je	.LBB0_75
.LBB0_67:                               # =>This Inner Loop Header: Depth=1
	movq	280(%rbp,%rsi), %rcx
	testq	%rcx, %rcx
	je	.LBB0_69
# %bb.68:                               #   in Loop: Header=BB0_67 Depth=1
	leaq	(%rdi,%rsi), %rax
	cmpq	%rcx, %rax
	setne	%dl
	movq	(%rcx), %rax
	callq	*32(%rax)
	movq	$0, 280(%rbp,%rsi)
.LBB0_69:                               #   in Loop: Header=BB0_67 Depth=1
	movq	216(%rbp,%rsi), %rax
	cmpq	$16, %rax
	jb	.LBB0_74
# %bb.70:                               #   in Loop: Header=BB0_67 Depth=1
	movq	192(%rbp,%rsi), %rcx
	leaq	1(%rax), %rdx
	cmpq	$4096, %rdx                     # imm = 0x1000
	jb	.LBB0_73
# %bb.71:                               #   in Loop: Header=BB0_67 Depth=1
	movq	-8(%rcx), %r8
	addq	$-8, %rcx
	subq	%r8, %rcx
	cmpq	$32, %rcx
	jae	.LBB0_227
# %bb.72:                               #   in Loop: Header=BB0_67 Depth=1
	addq	$40, %rax
	movq	%rax, %rdx
	movq	%r8, %rcx
	jmp	.LBB0_73
.LBB0_75:
	movb	$1, 886(%rbp)
	movaps	48(%rsp), %xmm6                 # 16-byte Reload
	movapd	32(%rsp), %xmm7                 # 16-byte Reload
	addq	$72, %rsp
	popq	%rbx
	popq	%rdi
	popq	%rsi
	popq	%r12
	popq	%r13
	popq	%r14
	popq	%r15
	popq	%rbp
	retq                                    # CLEANUPRET
.LBB0_227:
	callq	_invalid_parameter_noinfo_noreturn
	int3
	.seh_handlerdata
	.text
	.seh_endproc
	.def	"?dtor$76@?0?main@4HA";
	.scl	3;
	.type	32;
	.endef
	.p2align	4, 0x90
"?dtor$76@?0?main@4HA":
.seh_proc "?dtor$76@?0?main@4HA"
.LBB0_76:
	movq	%rdx, 16(%rsp)
	pushq	%rbp
	.seh_pushreg %rbp
	pushq	%r15
	.seh_pushreg %r15
	pushq	%r14
	.seh_pushreg %r14
	pushq	%r13
	.seh_pushreg %r13
	pushq	%r12
	.seh_pushreg %r12
	pushq	%rsi
	.seh_pushreg %rsi
	pushq	%rdi
	.seh_pushreg %rdi
	pushq	%rbx
	.seh_pushreg %rbx
	subq	$72, %rsp
	.seh_stackalloc 72
	leaq	128(%rdx), %rbp
	movapd	%xmm7, 32(%rsp)                 # 16-byte Spill
	.seh_savexmm %xmm7, 32
	movaps	%xmm6, 48(%rsp)                 # 16-byte Spill
	.seh_savexmm %xmm6, 48
	.seh_endprologue
	cmpb	$0, 886(%rbp)
	jne	.LBB0_79
# %bb.77:
	movl	$96, %esi
.LBB0_78:                               # =>This Inner Loop Header: Depth=1
	leaq	(%rsi,%rbp), %rcx
	callq	"??1?$pair@$$CBV?$basic_string@DU?$char_traits@D@std@@V?$allocator@D@2@@std@@V?$function@$$A6A?AV?$basic_string@DU?$char_traits@D@std@@V?$allocator@D@2@@std@@V12@@Z@2@@std@@QEAA@XZ"
	addq	$-96, %rsi
	cmpq	$-96, %rsi
	jne	.LBB0_78
.LBB0_79:
	movaps	48(%rsp), %xmm6                 # 16-byte Reload
	movaps	32(%rsp), %xmm7                 # 16-byte Reload
	addq	$72, %rsp
	popq	%rbx
	popq	%rdi
	popq	%rsi
	popq	%r12
	popq	%r13
	popq	%r14
	popq	%r15
	popq	%rbp
	retq                                    # CLEANUPRET
	.seh_handlerdata
	.text
	.seh_endproc
	.def	"?dtor$80@?0?main@4HA";
	.scl	3;
	.type	32;
	.endef
	.p2align	4, 0x90
"?dtor$80@?0?main@4HA":
.seh_proc "?dtor$80@?0?main@4HA"
.LBB0_80:
	movq	%rdx, 16(%rsp)
	pushq	%rbp
	.seh_pushreg %rbp
	pushq	%r15
	.seh_pushreg %r15
	pushq	%r14
	.seh_pushreg %r14
	pushq	%r13
	.seh_pushreg %r13
	pushq	%r12
	.seh_pushreg %r12
	pushq	%rsi
	.seh_pushreg %rsi
	pushq	%rdi
	.seh_pushreg %rdi
	pushq	%rbx
	.seh_pushreg %rbx
	subq	$72, %rsp
	.seh_stackalloc 72
	leaq	128(%rdx), %rbp
	movapd	%xmm7, 32(%rsp)                 # 16-byte Spill
	.seh_savexmm %xmm7, 32
	movaps	%xmm6, 48(%rsp)                 # 16-byte Spill
	.seh_savexmm %xmm6, 48
	.seh_endprologue
	movq	-8(%rbp), %rcx
	testq	%rcx, %rcx
	je	.LBB0_82
# %bb.81:
	leaq	-64(%rbp), %rax
	cmpq	%rax, %rcx
	setne	%dl
	movq	(%rcx), %rax
	callq	*32(%rax)
	movq	$0, -8(%rbp)
.LBB0_82:
	movaps	48(%rsp), %xmm6                 # 16-byte Reload
	movapd	32(%rsp), %xmm7                 # 16-byte Reload
	addq	$72, %rsp
	popq	%rbx
	popq	%rdi
	popq	%rsi
	popq	%r12
	popq	%r13
	popq	%r14
	popq	%r15
	popq	%rbp
	retq                                    # CLEANUPRET
	.seh_handlerdata
	.text
	.seh_endproc
	.def	"?dtor$96@?0?main@4HA";
	.scl	3;
	.type	32;
	.endef
	.p2align	4, 0x90
"?dtor$96@?0?main@4HA":
.seh_proc "?dtor$96@?0?main@4HA"
.LBB0_96:
	movq	%rdx, 16(%rsp)
	pushq	%rbp
	.seh_pushreg %rbp
	pushq	%r15
	.seh_pushreg %r15
	pushq	%r14
	.seh_pushreg %r14
	pushq	%r13
	.seh_pushreg %r13
	pushq	%r12
	.seh_pushreg %r12
	pushq	%rsi
	.seh_pushreg %rsi
	pushq	%rdi
	.seh_pushreg %rdi
	pushq	%rbx
	.seh_pushreg %rbx
	subq	$72, %rsp
	.seh_stackalloc 72
	leaq	128(%rdx), %rbp
	movapd	%xmm7, 32(%rsp)                 # 16-byte Spill
	.seh_savexmm %xmm7, 32
	movaps	%xmm6, 48(%rsp)                 # 16-byte Spill
	.seh_savexmm %xmm6, 48
	.seh_endprologue
	movq	-8(%rbp), %rcx
	testq	%rcx, %rcx
	je	.LBB0_98
# %bb.97:
	leaq	-64(%rbp), %rax
	cmpq	%rax, %rcx
	setne	%dl
	movq	(%rcx), %rax
	callq	*32(%rax)
	movq	$0, -8(%rbp)
.LBB0_98:
	movaps	48(%rsp), %xmm6                 # 16-byte Reload
	movapd	32(%rsp), %xmm7                 # 16-byte Reload
	addq	$72, %rsp
	popq	%rbx
	popq	%rdi
	popq	%rsi
	popq	%r12
	popq	%r13
	popq	%r14
	popq	%r15
	popq	%rbp
	retq                                    # CLEANUPRET
	.seh_handlerdata
	.text
	.seh_endproc
	.def	"?dtor$125@?0?main@4HA";
	.scl	3;
	.type	32;
	.endef
	.p2align	4, 0x90
"?dtor$125@?0?main@4HA":
.seh_proc "?dtor$125@?0?main@4HA"
.LBB0_125:
	movq	%rdx, 16(%rsp)
	pushq	%rbp
	.seh_pushreg %rbp
	pushq	%r15
	.seh_pushreg %r15
	pushq	%r14
	.seh_pushreg %r14
	pushq	%r13
	.seh_pushreg %r13
	pushq	%r12
	.seh_pushreg %r12
	pushq	%rsi
	.seh_pushreg %rsi
	pushq	%rdi
	.seh_pushreg %rdi
	pushq	%rbx
	.seh_pushreg %rbx
	subq	$72, %rsp
	.seh_stackalloc 72
	leaq	128(%rdx), %rbp
	movapd	%xmm7, 32(%rsp)                 # 16-byte Spill
	.seh_savexmm %xmm7, 32
	movaps	%xmm6, 48(%rsp)                 # 16-byte Spill
	.seh_savexmm %xmm6, 48
	.seh_endprologue
	callq	__std_terminate
	int3
	.seh_handlerdata
	.text
	.seh_endproc
	.def	"?dtor$137@?0?main@4HA";
	.scl	3;
	.type	32;
	.endef
	.p2align	4, 0x90
"?dtor$137@?0?main@4HA":
.seh_proc "?dtor$137@?0?main@4HA"
.LBB0_137:
	movq	%rdx, 16(%rsp)
	pushq	%rbp
	.seh_pushreg %rbp
	pushq	%r15
	.seh_pushreg %r15
	pushq	%r14
	.seh_pushreg %r14
	pushq	%r13
	.seh_pushreg %r13
	pushq	%r12
	.seh_pushreg %r12
	pushq	%rsi
	.seh_pushreg %rsi
	pushq	%rdi
	.seh_pushreg %rdi
	pushq	%rbx
	.seh_pushreg %rbx
	subq	$72, %rsp
	.seh_stackalloc 72
	leaq	128(%rdx), %rbp
	movapd	%xmm7, 32(%rsp)                 # 16-byte Spill
	.seh_savexmm %xmm7, 32
	movaps	%xmm6, 48(%rsp)                 # 16-byte Spill
	.seh_savexmm %xmm6, 48
	.seh_endprologue
	movq	632(%rbp), %rcx
	testq	%rcx, %rcx
	je	.LBB0_139
# %bb.138:
	leaq	576(%rbp), %rax
	cmpq	%rax, %rcx
	setne	%dl
	movq	(%rcx), %rax
	callq	*32(%rax)
	movq	$0, 632(%rbp)
.LBB0_139:
	movaps	48(%rsp), %xmm6                 # 16-byte Reload
	movapd	32(%rsp), %xmm7                 # 16-byte Reload
	addq	$72, %rsp
	popq	%rbx
	popq	%rdi
	popq	%rsi
	popq	%r12
	popq	%r13
	popq	%r14
	popq	%r15
	popq	%rbp
	retq                                    # CLEANUPRET
	.seh_handlerdata
	.text
	.seh_endproc
	.def	"?dtor$172@?0?main@4HA";
	.scl	3;
	.type	32;
	.endef
	.p2align	4, 0x90
"?dtor$172@?0?main@4HA":
.seh_proc "?dtor$172@?0?main@4HA"
.LBB0_172:
	movq	%rdx, 16(%rsp)
	pushq	%rbp
	.seh_pushreg %rbp
	pushq	%r15
	.seh_pushreg %r15
	pushq	%r14
	.seh_pushreg %r14
	pushq	%r13
	.seh_pushreg %r13
	pushq	%r12
	.seh_pushreg %r12
	pushq	%rsi
	.seh_pushreg %rsi
	pushq	%rdi
	.seh_pushreg %rdi
	pushq	%rbx
	.seh_pushreg %rbx
	subq	$72, %rsp
	.seh_stackalloc 72
	leaq	128(%rdx), %rbp
	movapd	%xmm7, 32(%rsp)                 # 16-byte Spill
	.seh_savexmm %xmm7, 32
	movaps	%xmm6, 48(%rsp)                 # 16-byte Spill
	.seh_savexmm %xmm6, 48
	.seh_endprologue
	callq	__std_terminate
	int3
	.seh_handlerdata
	.text
	.seh_endproc
	.def	"?dtor$180@?0?main@4HA";
	.scl	3;
	.type	32;
	.endef
	.p2align	4, 0x90
"?dtor$180@?0?main@4HA":
.seh_proc "?dtor$180@?0?main@4HA"
.LBB0_180:
	movq	%rdx, 16(%rsp)
	pushq	%rbp
	.seh_pushreg %rbp
	pushq	%r15
	.seh_pushreg %r15
	pushq	%r14
	.seh_pushreg %r14
	pushq	%r13
	.seh_pushreg %r13
	pushq	%r12
	.seh_pushreg %r12
	pushq	%rsi
	.seh_pushreg %rsi
	pushq	%rdi
	.seh_pushreg %rdi
	pushq	%rbx
	.seh_pushreg %rbx
	subq	$72, %rsp
	.seh_stackalloc 72
	leaq	128(%rdx), %rbp
	movapd	%xmm7, 32(%rsp)                 # 16-byte Spill
	.seh_savexmm %xmm7, 32
	movaps	%xmm6, 48(%rsp)                 # 16-byte Spill
	.seh_savexmm %xmm6, 48
	.seh_endprologue
	callq	__std_terminate
	int3
	.seh_handlerdata
	.text
	.seh_endproc
	.def	"?dtor$190@?0?main@4HA";
	.scl	3;
	.type	32;
	.endef
	.p2align	4, 0x90
"?dtor$190@?0?main@4HA":
.seh_proc "?dtor$190@?0?main@4HA"
.LBB0_190:
	movq	%rdx, 16(%rsp)
	pushq	%rbp
	.seh_pushreg %rbp
	pushq	%r15
	.seh_pushreg %r15
	pushq	%r14
	.seh_pushreg %r14
	pushq	%r13
	.seh_pushreg %r13
	pushq	%r12
	.seh_pushreg %r12
	pushq	%rsi
	.seh_pushreg %rsi
	pushq	%rdi
	.seh_pushreg %rdi
	pushq	%rbx
	.seh_pushreg %rbx
	subq	$72, %rsp
	.seh_stackalloc 72
	leaq	128(%rdx), %rbp
	movapd	%xmm7, 32(%rsp)                 # 16-byte Spill
	.seh_savexmm %xmm7, 32
	movaps	%xmm6, 48(%rsp)                 # 16-byte Spill
	.seh_savexmm %xmm6, 48
	.seh_endprologue
	leaq	768(%rbp), %rcx
	callq	"??1?$basic_string@DU?$char_traits@D@std@@V?$allocator@D@2@@std@@QEAA@XZ"
	movaps	48(%rsp), %xmm6                 # 16-byte Reload
	movapd	32(%rsp), %xmm7                 # 16-byte Reload
	addq	$72, %rsp
	popq	%rbx
	popq	%rdi
	popq	%rsi
	popq	%r12
	popq	%r13
	popq	%r14
	popq	%r15
	popq	%rbp
	retq                                    # CLEANUPRET
	.seh_handlerdata
	.text
	.seh_endproc
	.def	"?dtor$191@?0?main@4HA";
	.scl	3;
	.type	32;
	.endef
	.p2align	4, 0x90
"?dtor$191@?0?main@4HA":
.seh_proc "?dtor$191@?0?main@4HA"
.LBB0_191:
	movq	%rdx, 16(%rsp)
	pushq	%rbp
	.seh_pushreg %rbp
	pushq	%r15
	.seh_pushreg %r15
	pushq	%r14
	.seh_pushreg %r14
	pushq	%r13
	.seh_pushreg %r13
	pushq	%r12
	.seh_pushreg %r12
	pushq	%rsi
	.seh_pushreg %rsi
	pushq	%rdi
	.seh_pushreg %rdi
	pushq	%rbx
	.seh_pushreg %rbx
	subq	$72, %rsp
	.seh_stackalloc 72
	leaq	128(%rdx), %rbp
	movapd	%xmm7, 32(%rsp)                 # 16-byte Spill
	.seh_savexmm %xmm7, 32
	movaps	%xmm6, 48(%rsp)                 # 16-byte Spill
	.seh_savexmm %xmm6, 48
	.seh_endprologue
	leaq	736(%rbp), %rcx
	callq	"??1?$basic_string@DU?$char_traits@D@std@@V?$allocator@D@2@@std@@QEAA@XZ"
	movq	632(%rbp), %rcx
	testq	%rcx, %rcx
	je	.LBB0_193
# %bb.192:
	leaq	576(%rbp), %rax
	cmpq	%rax, %rcx
	setne	%dl
	movq	(%rcx), %rax
	callq	*32(%rax)
	movq	$0, 632(%rbp)
.LBB0_193:
	movaps	48(%rsp), %xmm6                 # 16-byte Reload
	movapd	32(%rsp), %xmm7                 # 16-byte Reload
	addq	$72, %rsp
	popq	%rbx
	popq	%rdi
	popq	%rsi
	popq	%r12
	popq	%r13
	popq	%r14
	popq	%r15
	popq	%rbp
	retq                                    # CLEANUPRET
	.seh_handlerdata
	.text
	.seh_endproc
	.def	"?dtor$194@?0?main@4HA";
	.scl	3;
	.type	32;
	.endef
	.p2align	4, 0x90
"?dtor$194@?0?main@4HA":
.seh_proc "?dtor$194@?0?main@4HA"
.LBB0_194:
	movq	%rdx, 16(%rsp)
	pushq	%rbp
	.seh_pushreg %rbp
	pushq	%r15
	.seh_pushreg %r15
	pushq	%r14
	.seh_pushreg %r14
	pushq	%r13
	.seh_pushreg %r13
	pushq	%r12
	.seh_pushreg %r12
	pushq	%rsi
	.seh_pushreg %rsi
	pushq	%rdi
	.seh_pushreg %rdi
	pushq	%rbx
	.seh_pushreg %rbx
	subq	$72, %rsp
	.seh_stackalloc 72
	leaq	128(%rdx), %rbp
	movapd	%xmm7, 32(%rsp)                 # 16-byte Spill
	.seh_savexmm %xmm7, 32
	movaps	%xmm6, 48(%rsp)                 # 16-byte Spill
	.seh_savexmm %xmm6, 48
	.seh_endprologue
	callq	__std_terminate
	int3
	.seh_handlerdata
	.text
	.seh_endproc
	.def	"?dtor$203@?0?main@4HA";
	.scl	3;
	.type	32;
	.endef
	.p2align	4, 0x90
"?dtor$203@?0?main@4HA":
.seh_proc "?dtor$203@?0?main@4HA"
.LBB0_203:
	movq	%rdx, 16(%rsp)
	pushq	%rbp
	.seh_pushreg %rbp
	pushq	%r15
	.seh_pushreg %r15
	pushq	%r14
	.seh_pushreg %r14
	pushq	%r13
	.seh_pushreg %r13
	pushq	%r12
	.seh_pushreg %r12
	pushq	%rsi
	.seh_pushreg %rsi
	pushq	%rdi
	.seh_pushreg %rdi
	pushq	%rbx
	.seh_pushreg %rbx
	subq	$72, %rsp
	.seh_stackalloc 72
	leaq	128(%rdx), %rbp
	movapd	%xmm7, 32(%rsp)                 # 16-byte Spill
	.seh_savexmm %xmm7, 32
	movaps	%xmm6, 48(%rsp)                 # 16-byte Spill
	.seh_savexmm %xmm6, 48
	.seh_endprologue
	callq	__std_terminate
	int3
	.seh_handlerdata
	.text
	.seh_endproc
	.def	"?dtor$206@?0?main@4HA";
	.scl	3;
	.type	32;
	.endef
	.p2align	4, 0x90
"?dtor$206@?0?main@4HA":
.seh_proc "?dtor$206@?0?main@4HA"
.LBB0_206:
	movq	%rdx, 16(%rsp)
	pushq	%rbp
	.seh_pushreg %rbp
	pushq	%r15
	.seh_pushreg %r15
	pushq	%r14
	.seh_pushreg %r14
	pushq	%r13
	.seh_pushreg %r13
	pushq	%r12
	.seh_pushreg %r12
	pushq	%rsi
	.seh_pushreg %rsi
	pushq	%rdi
	.seh_pushreg %rdi
	pushq	%rbx
	.seh_pushreg %rbx
	subq	$72, %rsp
	.seh_stackalloc 72
	leaq	128(%rdx), %rbp
	movapd	%xmm7, 32(%rsp)                 # 16-byte Spill
	.seh_savexmm %xmm7, 32
	movaps	%xmm6, 48(%rsp)                 # 16-byte Spill
	.seh_savexmm %xmm6, 48
	.seh_endprologue
	movq	632(%rbp), %rcx
	testq	%rcx, %rcx
	je	.LBB0_208
# %bb.207:
	leaq	576(%rbp), %rax
	cmpq	%rax, %rcx
	setne	%dl
	movq	(%rcx), %rax
	callq	*32(%rax)
	movq	$0, 632(%rbp)
.LBB0_208:
	movaps	48(%rsp), %xmm6                 # 16-byte Reload
	movapd	32(%rsp), %xmm7                 # 16-byte Reload
	addq	$72, %rsp
	popq	%rbx
	popq	%rdi
	popq	%rsi
	popq	%r12
	popq	%r13
	popq	%r14
	popq	%r15
	popq	%rbp
	retq                                    # CLEANUPRET
	.seh_handlerdata
	.text
	.seh_endproc
	.def	"?dtor$209@?0?main@4HA";
	.scl	3;
	.type	32;
	.endef
	.p2align	4, 0x90
"?dtor$209@?0?main@4HA":
.seh_proc "?dtor$209@?0?main@4HA"
.LBB0_209:
	movq	%rdx, 16(%rsp)
	pushq	%rbp
	.seh_pushreg %rbp
	pushq	%r15
	.seh_pushreg %r15
	pushq	%r14
	.seh_pushreg %r14
	pushq	%r13
	.seh_pushreg %r13
	pushq	%r12
	.seh_pushreg %r12
	pushq	%rsi
	.seh_pushreg %rsi
	pushq	%rdi
	.seh_pushreg %rdi
	pushq	%rbx
	.seh_pushreg %rbx
	subq	$72, %rsp
	.seh_stackalloc 72
	leaq	128(%rdx), %rbp
	movapd	%xmm7, 32(%rsp)                 # 16-byte Spill
	.seh_savexmm %xmm7, 32
	movaps	%xmm6, 48(%rsp)                 # 16-byte Spill
	.seh_savexmm %xmm6, 48
	.seh_endprologue
	leaq	800(%rbp), %rcx
	callq	"??1?$basic_string@DU?$char_traits@D@std@@V?$allocator@D@2@@std@@QEAA@XZ"
	movaps	48(%rsp), %xmm6                 # 16-byte Reload
	movapd	32(%rsp), %xmm7                 # 16-byte Reload
	addq	$72, %rsp
	popq	%rbx
	popq	%rdi
	popq	%rsi
	popq	%r12
	popq	%r13
	popq	%r14
	popq	%r15
	popq	%rbp
	retq                                    # CLEANUPRET
	.seh_handlerdata
	.text
	.seh_endproc
	.def	"?dtor$210@?0?main@4HA";
	.scl	3;
	.type	32;
	.endef
	.p2align	4, 0x90
"?dtor$210@?0?main@4HA":
.seh_proc "?dtor$210@?0?main@4HA"
.LBB0_210:
	movq	%rdx, 16(%rsp)
	pushq	%rbp
	.seh_pushreg %rbp
	pushq	%r15
	.seh_pushreg %r15
	pushq	%r14
	.seh_pushreg %r14
	pushq	%r13
	.seh_pushreg %r13
	pushq	%r12
	.seh_pushreg %r12
	pushq	%rsi
	.seh_pushreg %rsi
	pushq	%rdi
	.seh_pushreg %rdi
	pushq	%rbx
	.seh_pushreg %rbx
	subq	$72, %rsp
	.seh_stackalloc 72
	leaq	128(%rdx), %rbp
	movapd	%xmm7, 32(%rsp)                 # 16-byte Spill
	.seh_savexmm %xmm7, 32
	movaps	%xmm6, 48(%rsp)                 # 16-byte Spill
	.seh_savexmm %xmm6, 48
	.seh_endprologue
	movq	%rbp, %rcx
	callq	"??_D?$basic_fstream@DU?$char_traits@D@std@@@std@@QEAAXXZ"
	movaps	48(%rsp), %xmm6                 # 16-byte Reload
	movapd	32(%rsp), %xmm7                 # 16-byte Reload
	addq	$72, %rsp
	popq	%rbx
	popq	%rdi
	popq	%rsi
	popq	%r12
	popq	%r13
	popq	%r14
	popq	%r15
	popq	%rbp
	retq                                    # CLEANUPRET
	.seh_handlerdata
	.text
	.seh_endproc
	.def	"?dtor$211@?0?main@4HA";
	.scl	3;
	.type	32;
	.endef
	.p2align	4, 0x90
"?dtor$211@?0?main@4HA":
.seh_proc "?dtor$211@?0?main@4HA"
.LBB0_211:
	movq	%rdx, 16(%rsp)
	pushq	%rbp
	.seh_pushreg %rbp
	pushq	%r15
	.seh_pushreg %r15
	pushq	%r14
	.seh_pushreg %r14
	pushq	%r13
	.seh_pushreg %r13
	pushq	%r12
	.seh_pushreg %r12
	pushq	%rsi
	.seh_pushreg %rsi
	pushq	%rdi
	.seh_pushreg %rdi
	pushq	%rbx
	.seh_pushreg %rbx
	subq	$72, %rsp
	.seh_stackalloc 72
	leaq	128(%rdx), %rbp
	movapd	%xmm7, 32(%rsp)                 # 16-byte Spill
	.seh_savexmm %xmm7, 32
	movaps	%xmm6, 48(%rsp)                 # 16-byte Spill
	.seh_savexmm %xmm6, 48
	.seh_endprologue
	leaq	704(%rbp), %rcx
	callq	"??1?$basic_string@DU?$char_traits@D@std@@V?$allocator@D@2@@std@@QEAA@XZ"
	movaps	48(%rsp), %xmm6                 # 16-byte Reload
	movapd	32(%rsp), %xmm7                 # 16-byte Reload
	addq	$72, %rsp
	popq	%rbx
	popq	%rdi
	popq	%rsi
	popq	%r12
	popq	%r13
	popq	%r14
	popq	%r15
	popq	%rbp
	retq                                    # CLEANUPRET
	.seh_handlerdata
	.text
	.seh_endproc
	.def	"?dtor$218@?0?main@4HA";
	.scl	3;
	.type	32;
	.endef
	.p2align	4, 0x90
"?dtor$218@?0?main@4HA":
.seh_proc "?dtor$218@?0?main@4HA"
.LBB0_218:
	movq	%rdx, 16(%rsp)
	pushq	%rbp
	.seh_pushreg %rbp
	pushq	%r15
	.seh_pushreg %r15
	pushq	%r14
	.seh_pushreg %r14
	pushq	%r13
	.seh_pushreg %r13
	pushq	%r12
	.seh_pushreg %r12
	pushq	%rsi
	.seh_pushreg %rsi
	pushq	%rdi
	.seh_pushreg %rdi
	pushq	%rbx
	.seh_pushreg %rbx
	subq	$72, %rsp
	.seh_stackalloc 72
	leaq	128(%rdx), %rbp
	movapd	%xmm7, 32(%rsp)                 # 16-byte Spill
	.seh_savexmm %xmm7, 32
	movaps	%xmm6, 48(%rsp)                 # 16-byte Spill
	.seh_savexmm %xmm6, 48
	.seh_endprologue
	callq	__std_terminate
	int3
	.seh_handlerdata
	.text
	.seh_endproc
	.def	"?dtor$221@?0?main@4HA";
	.scl	3;
	.type	32;
	.endef
	.p2align	4, 0x90
"?dtor$221@?0?main@4HA":
.seh_proc "?dtor$221@?0?main@4HA"
.LBB0_221:
	movq	%rdx, 16(%rsp)
	pushq	%rbp
	.seh_pushreg %rbp
	pushq	%r15
	.seh_pushreg %r15
	pushq	%r14
	.seh_pushreg %r14
	pushq	%r13
	.seh_pushreg %r13
	pushq	%r12
	.seh_pushreg %r12
	pushq	%rsi
	.seh_pushreg %rsi
	pushq	%rdi
	.seh_pushreg %rdi
	pushq	%rbx
	.seh_pushreg %rbx
	subq	$72, %rsp
	.seh_stackalloc 72
	leaq	128(%rdx), %rbp
	movapd	%xmm7, 32(%rsp)                 # 16-byte Spill
	.seh_savexmm %xmm7, 32
	movaps	%xmm6, 48(%rsp)                 # 16-byte Spill
	.seh_savexmm %xmm6, 48
	.seh_endprologue
	leaq	672(%rbp), %rcx
	callq	"??1?$basic_string@DU?$char_traits@D@std@@V?$allocator@D@2@@std@@QEAA@XZ"
	leaq	848(%rbp), %rcx
	callq	"??1?$_Tree@V?$_Tmap_traits@V?$basic_string@DU?$char_traits@D@std@@V?$allocator@D@2@@std@@V?$function@$$A6A?AV?$basic_string@DU?$char_traits@D@std@@V?$allocator@D@2@@std@@V12@@Z@2@U?$less@V?$basic_string@DU?$char_traits@D@std@@V?$allocator@D@2@@std@@@2@V?$allocator@U?$pair@$$CBV?$basic_string@DU?$char_traits@D@std@@V?$allocator@D@2@@std@@V?$function@$$A6A?AV?$basic_string@DU?$char_traits@D@std@@V?$allocator@D@2@@std@@V12@@Z@2@@std@@@2@$0A@@std@@@std@@QEAA@XZ"
	movaps	48(%rsp), %xmm6                 # 16-byte Reload
	movapd	32(%rsp), %xmm7                 # 16-byte Reload
	addq	$72, %rsp
	popq	%rbx
	popq	%rdi
	popq	%rsi
	popq	%r12
	popq	%r13
	popq	%r14
	popq	%r15
	popq	%rbp
	retq                                    # CLEANUPRET
	.seh_handlerdata
	.text
	.seh_endproc
	.def	"?dtor$223@?0?main@4HA";
	.scl	3;
	.type	32;
	.endef
	.p2align	4, 0x90
"?dtor$223@?0?main@4HA":
.seh_proc "?dtor$223@?0?main@4HA"
.LBB0_223:
	movq	%rdx, 16(%rsp)
	pushq	%rbp
	.seh_pushreg %rbp
	pushq	%r15
	.seh_pushreg %r15
	pushq	%r14
	.seh_pushreg %r14
	pushq	%r13
	.seh_pushreg %r13
	pushq	%r12
	.seh_pushreg %r12
	pushq	%rsi
	.seh_pushreg %rsi
	pushq	%rdi
	.seh_pushreg %rdi
	pushq	%rbx
	.seh_pushreg %rbx
	subq	$72, %rsp
	.seh_stackalloc 72
	leaq	128(%rdx), %rbp
	movapd	%xmm7, 32(%rsp)                 # 16-byte Spill
	.seh_savexmm %xmm7, 32
	movaps	%xmm6, 48(%rsp)                 # 16-byte Spill
	.seh_savexmm %xmm6, 48
	.seh_endprologue
	leaq	832(%rbp), %rcx
	callq	"??1?$_Tree@V?$_Tmap_traits@V?$basic_string@DU?$char_traits@D@std@@V?$allocator@D@2@@std@@V?$function@$$A6A_K_K@Z@2@U?$less@V?$basic_string@DU?$char_traits@D@std@@V?$allocator@D@2@@std@@@2@V?$allocator@U?$pair@$$CBV?$basic_string@DU?$char_traits@D@std@@V?$allocator@D@2@@std@@V?$function@$$A6A_K_K@Z@2@@std@@@2@$0A@@std@@@std@@QEAA@XZ"
	movaps	48(%rsp), %xmm6                 # 16-byte Reload
	movaps	32(%rsp), %xmm7                 # 16-byte Reload
	addq	$72, %rsp
	popq	%rbx
	popq	%rdi
	popq	%rsi
	popq	%r12
	popq	%r13
	popq	%r14
	popq	%r15
	popq	%rbp
	retq                                    # CLEANUPRET
	.seh_handlerdata
	.text
	.seh_endproc
	.def	"?dtor$224@?0?main@4HA";
	.scl	3;
	.type	32;
	.endef
	.p2align	4, 0x90
"?dtor$224@?0?main@4HA":
.seh_proc "?dtor$224@?0?main@4HA"
.LBB0_224:
	movq	%rdx, 16(%rsp)
	pushq	%rbp
	.seh_pushreg %rbp
	pushq	%r15
	.seh_pushreg %r15
	pushq	%r14
	.seh_pushreg %r14
	pushq	%r13
	.seh_pushreg %r13
	pushq	%r12
	.seh_pushreg %r12
	pushq	%rsi
	.seh_pushreg %rsi
	pushq	%rdi
	.seh_pushreg %rdi
	pushq	%rbx
	.seh_pushreg %rbx
	subq	$72, %rsp
	.seh_stackalloc 72
	leaq	128(%rdx), %rbp
	movapd	%xmm7, 32(%rsp)                 # 16-byte Spill
	.seh_savexmm %xmm7, 32
	movaps	%xmm6, 48(%rsp)                 # 16-byte Spill
	.seh_savexmm %xmm6, 48
	.seh_endprologue
	leaq	832(%rbp), %rcx
	callq	"??1?$_Tree@V?$_Tmap_traits@V?$basic_string@DU?$char_traits@D@std@@V?$allocator@D@2@@std@@V?$function@$$A6A_K_K@Z@2@U?$less@V?$basic_string@DU?$char_traits@D@std@@V?$allocator@D@2@@std@@@2@V?$allocator@U?$pair@$$CBV?$basic_string@DU?$char_traits@D@std@@V?$allocator@D@2@@std@@V?$function@$$A6A_K_K@Z@2@@std@@@2@$0A@@std@@@std@@QEAA@XZ"
	movaps	48(%rsp), %xmm6                 # 16-byte Reload
	movapd	32(%rsp), %xmm7                 # 16-byte Reload
	addq	$72, %rsp
	popq	%rbx
	popq	%rdi
	popq	%rsi
	popq	%r12
	popq	%r13
	popq	%r14
	popq	%r15
	popq	%rbp
	retq                                    # CLEANUPRET
	.seh_handlerdata
	.text
	.seh_endproc
	.def	"?dtor$225@?0?main@4HA";
	.scl	3;
	.type	32;
	.endef
	.p2align	4, 0x90
"?dtor$225@?0?main@4HA":
.seh_proc "?dtor$225@?0?main@4HA"
.LBB0_225:
	movq	%rdx, 16(%rsp)
	pushq	%rbp
	.seh_pushreg %rbp
	pushq	%r15
	.seh_pushreg %r15
	pushq	%r14
	.seh_pushreg %r14
	pushq	%r13
	.seh_pushreg %r13
	pushq	%r12
	.seh_pushreg %r12
	pushq	%rsi
	.seh_pushreg %rsi
	pushq	%rdi
	.seh_pushreg %rdi
	pushq	%rbx
	.seh_pushreg %rbx
	subq	$72, %rsp
	.seh_stackalloc 72
	leaq	128(%rdx), %rbp
	movapd	%xmm7, 32(%rsp)                 # 16-byte Spill
	.seh_savexmm %xmm7, 32
	movaps	%xmm6, 48(%rsp)                 # 16-byte Spill
	.seh_savexmm %xmm6, 48
	.seh_endprologue
	leaq	848(%rbp), %rcx
	callq	"??1?$_Tree@V?$_Tmap_traits@V?$basic_string@DU?$char_traits@D@std@@V?$allocator@D@2@@std@@V?$function@$$A6A?AV?$basic_string@DU?$char_traits@D@std@@V?$allocator@D@2@@std@@V12@@Z@2@U?$less@V?$basic_string@DU?$char_traits@D@std@@V?$allocator@D@2@@std@@@2@V?$allocator@U?$pair@$$CBV?$basic_string@DU?$char_traits@D@std@@V?$allocator@D@2@@std@@V?$function@$$A6A?AV?$basic_string@DU?$char_traits@D@std@@V?$allocator@D@2@@std@@V12@@Z@2@@std@@@2@$0A@@std@@@std@@QEAA@XZ"
	movaps	48(%rsp), %xmm6                 # 16-byte Reload
	movapd	32(%rsp), %xmm7                 # 16-byte Reload
	addq	$72, %rsp
	popq	%rbx
	popq	%rdi
	popq	%rsi
	popq	%r12
	popq	%r13
	popq	%r14
	popq	%r15
	popq	%rbp
	retq                                    # CLEANUPRET
	.seh_handlerdata
	.text
	.seh_endproc
	.def	"?dtor$228@?0?main@4HA";
	.scl	3;
	.type	32;
	.endef
	.p2align	4, 0x90
"?dtor$228@?0?main@4HA":
.seh_proc "?dtor$228@?0?main@4HA"
.LBB0_228:
	movq	%rdx, 16(%rsp)
	pushq	%rbp
	.seh_pushreg %rbp
	pushq	%r15
	.seh_pushreg %r15
	pushq	%r14
	.seh_pushreg %r14
	pushq	%r13
	.seh_pushreg %r13
	pushq	%r12
	.seh_pushreg %r12
	pushq	%rsi
	.seh_pushreg %rsi
	pushq	%rdi
	.seh_pushreg %rdi
	pushq	%rbx
	.seh_pushreg %rbx
	subq	$72, %rsp
	.seh_stackalloc 72
	leaq	128(%rdx), %rbp
	movapd	%xmm7, 32(%rsp)                 # 16-byte Spill
	.seh_savexmm %xmm7, 32
	movaps	%xmm6, 48(%rsp)                 # 16-byte Spill
	.seh_savexmm %xmm6, 48
	.seh_endprologue
	callq	__std_terminate
	int3
.Lfunc_end0:
	.seh_handlerdata
	.text
	.seh_endproc
	.section	.xdata,"dr"
	.p2align	2, 0x0
$cppxdata$main:
	.long	429065506                       # MagicNumber
	.long	26                              # MaxState
	.long	($stateUnwindMap$main)@IMGREL   # UnwindMap
	.long	0                               # NumTryBlocks
	.long	0                               # TryBlockMap
	.long	40                              # IPMapEntries
	.long	($ip2state$main)@IMGREL         # IPToStateXData
	.long	1016                            # UnwindHelp
	.long	0                               # ESTypeList
	.long	1                               # EHFlags
$stateUnwindMap$main:
	.long	-1                              # ToState
	.long	"?dtor$18@?0?main@4HA"@IMGREL   # Action
	.long	-1                              # ToState
	.long	"?dtor$35@?0?main@4HA"@IMGREL   # Action
	.long	-1                              # ToState
	.long	"?dtor$62@?0?main@4HA"@IMGREL   # Action
	.long	2                               # ToState
	.long	"?dtor$52@?0?main@4HA"@IMGREL   # Action
	.long	3                               # ToState
	.long	"?dtor$224@?0?main@4HA"@IMGREL  # Action
	.long	-1                              # ToState
	.long	"?dtor$125@?0?main@4HA"@IMGREL  # Action
	.long	-1                              # ToState
	.long	"?dtor$172@?0?main@4HA"@IMGREL  # Action
	.long	-1                              # ToState
	.long	"?dtor$180@?0?main@4HA"@IMGREL  # Action
	.long	-1                              # ToState
	.long	"?dtor$194@?0?main@4HA"@IMGREL  # Action
	.long	-1                              # ToState
	.long	"?dtor$228@?0?main@4HA"@IMGREL  # Action
	.long	-1                              # ToState
	.long	"?dtor$203@?0?main@4HA"@IMGREL  # Action
	.long	-1                              # ToState
	.long	"?dtor$218@?0?main@4HA"@IMGREL  # Action
	.long	-1                              # ToState
	.long	"?dtor$223@?0?main@4HA"@IMGREL  # Action
	.long	12                              # ToState
	.long	"?dtor$221@?0?main@4HA"@IMGREL  # Action
	.long	13                              # ToState
	.long	"?dtor$96@?0?main@4HA"@IMGREL   # Action
	.long	13                              # ToState
	.long	"?dtor$80@?0?main@4HA"@IMGREL   # Action
	.long	13                              # ToState
	.long	"?dtor$211@?0?main@4HA"@IMGREL  # Action
	.long	16                              # ToState
	.long	"?dtor$210@?0?main@4HA"@IMGREL  # Action
	.long	17                              # ToState
	.long	"?dtor$209@?0?main@4HA"@IMGREL  # Action
	.long	18                              # ToState
	.long	"?dtor$191@?0?main@4HA"@IMGREL  # Action
	.long	19                              # ToState
	.long	"?dtor$190@?0?main@4HA"@IMGREL  # Action
	.long	18                              # ToState
	.long	"?dtor$137@?0?main@4HA"@IMGREL  # Action
	.long	18                              # ToState
	.long	"?dtor$206@?0?main@4HA"@IMGREL  # Action
	.long	12                              # ToState
	.long	"?dtor$76@?0?main@4HA"@IMGREL   # Action
	.long	23                              # ToState
	.long	"?dtor$66@?0?main@4HA"@IMGREL   # Action
	.long	24                              # ToState
	.long	"?dtor$225@?0?main@4HA"@IMGREL  # Action
$ip2state$main:
	.long	.Lfunc_begin0@IMGREL            # IP
	.long	-1                              # ToState
	.long	.Ltmp0@IMGREL+1                 # IP
	.long	2                               # ToState
	.long	.Ltmp12@IMGREL+1                # IP
	.long	3                               # ToState
	.long	.Ltmp14@IMGREL+1                # IP
	.long	4                               # ToState
	.long	.Ltmp15@IMGREL+1                # IP
	.long	-1                              # ToState
	.long	.Ltmp16@IMGREL+1                # IP
	.long	0                               # ToState
	.long	.Ltmp18@IMGREL+1                # IP
	.long	23                              # ToState
	.long	.Ltmp20@IMGREL+1                # IP
	.long	24                              # ToState
	.long	.Ltmp22@IMGREL+1                # IP
	.long	25                              # ToState
	.long	.Ltmp23@IMGREL+1                # IP
	.long	-1                              # ToState
	.long	.Ltmp24@IMGREL+1                # IP
	.long	1                               # ToState
	.long	.Ltmp26@IMGREL+1                # IP
	.long	13                              # ToState
	.long	.Ltmp32@IMGREL+1                # IP
	.long	15                              # ToState
	.long	.Ltmp34@IMGREL+1                # IP
	.long	14                              # ToState
	.long	.Ltmp55@IMGREL+1                # IP
	.long	-1                              # ToState
	.long	.Ltmp58@IMGREL+1                # IP
	.long	13                              # ToState
	.long	.Ltmp60@IMGREL+1                # IP
	.long	16                              # ToState
	.long	.Ltmp64@IMGREL+1                # IP
	.long	17                              # ToState
	.long	.Ltmp120@IMGREL+1               # IP
	.long	13                              # ToState
	.long	.Ltmp110@IMGREL+1               # IP
	.long	18                              # ToState
	.long	.Ltmp113@IMGREL+1               # IP
	.long	-1                              # ToState
	.long	.Ltmp66@IMGREL+1                # IP
	.long	18                              # ToState
	.long	.Ltmp68@IMGREL+1                # IP
	.long	21                              # ToState
	.long	.Ltmp72@IMGREL+1                # IP
	.long	22                              # ToState
	.long	.Ltmp71@IMGREL+1                # IP
	.long	-1                              # ToState
	.long	.Ltmp74@IMGREL+1                # IP
	.long	19                              # ToState
	.long	.Ltmp77@IMGREL+1                # IP
	.long	-1                              # ToState
	.long	.Ltmp80@IMGREL+1                # IP
	.long	19                              # ToState
	.long	.Ltmp82@IMGREL+1                # IP
	.long	20                              # ToState
	.long	.Ltmp99@IMGREL+1                # IP
	.long	-1                              # ToState
	.long	.Ltmp106@IMGREL+1               # IP
	.long	9                               # ToState
	.long	.Ltmp122@IMGREL+1               # IP
	.long	11                              # ToState
	.long	.Ltmp118@IMGREL+1               # IP
	.long	18                              # ToState
	.long	.Ltmp116@IMGREL+1               # IP
	.long	5                               # ToState
	.long	.Ltmp56@IMGREL+1                # IP
	.long	14                              # ToState
	.long	.Ltmp108@IMGREL+1               # IP
	.long	10                              # ToState
	.long	.Ltmp100@IMGREL+1               # IP
	.long	6                               # ToState
	.long	.Ltmp104@IMGREL+1               # IP
	.long	8                               # ToState
	.long	.Ltmp102@IMGREL+1               # IP
	.long	7                               # ToState
	.long	.Ltmp103@IMGREL+1               # IP
	.long	-1                              # ToState
	.text
                                        # -- End function
	.def	"??1?$pair@$$CBV?$basic_string@DU?$char_traits@D@std@@V?$allocator@D@2@@std@@V?$function@$$A6A_K_K@Z@2@@std@@QEAA@XZ";
	.scl	2;
	.type	32;
	.endef
	.section	.text,"xr",discard,"??1?$pair@$$CBV?$basic_string@DU?$char_traits@D@std@@V?$allocator@D@2@@std@@V?$function@$$A6A_K_K@Z@2@@std@@QEAA@XZ"
	.globl	"??1?$pair@$$CBV?$basic_string@DU?$char_traits@D@std@@V?$allocator@D@2@@std@@V?$function@$$A6A_K_K@Z@2@@std@@QEAA@XZ" # -- Begin function ??1?$pair@$$CBV?$basic_string@DU?$char_traits@D@std@@V?$allocator@D@2@@std@@V?$function@$$A6A_K_K@Z@2@@std@@QEAA@XZ
	.p2align	4, 0x90
"??1?$pair@$$CBV?$basic_string@DU?$char_traits@D@std@@V?$allocator@D@2@@std@@V?$function@$$A6A_K_K@Z@2@@std@@QEAA@XZ": # @"??1?$pair@$$CBV?$basic_string@DU?$char_traits@D@std@@V?$allocator@D@2@@std@@V?$function@$$A6A_K_K@Z@2@@std@@QEAA@XZ"
.Lfunc_begin1:
.seh_proc "??1?$pair@$$CBV?$basic_string@DU?$char_traits@D@std@@V?$allocator@D@2@@std@@V?$function@$$A6A_K_K@Z@2@@std@@QEAA@XZ"
	.seh_handler __CxxFrameHandler3, @unwind, @except
# %bb.0:
	pushq	%rbp
	.seh_pushreg %rbp
	pushq	%rsi
	.seh_pushreg %rsi
	subq	$40, %rsp
	.seh_stackalloc 40
	leaq	32(%rsp), %rbp
	.seh_setframe %rbp, 32
	.seh_endprologue
	movq	$-2, (%rbp)
	movq	%rcx, %rsi
	movq	88(%rcx), %rcx
	testq	%rcx, %rcx
	je	.LBB1_2
# %bb.1:
	leaq	32(%rsi), %rax
	cmpq	%rax, %rcx
	setne	%dl
	movq	(%rcx), %rax
	callq	*32(%rax)
	movq	$0, 88(%rsi)
.LBB1_2:
	movq	24(%rsi), %rax
	cmpq	$16, %rax
	jb	.LBB1_10
# %bb.3:
	movq	(%rsi), %rcx
	leaq	1(%rax), %rdx
	cmpq	$4096, %rdx                     # imm = 0x1000
	jb	.LBB1_9
# %bb.4:
	movq	-8(%rcx), %r8
	addq	$-8, %rcx
	subq	%r8, %rcx
	cmpq	$32, %rcx
	jae	.LBB1_5
# %bb.8:
	addq	$40, %rax
	movq	%rax, %rdx
	movq	%r8, %rcx
.LBB1_9:
	callq	"??3@YAXPEAX_K@Z"
.LBB1_10:
	movq	$0, 16(%rsi)
	movq	$15, 24(%rsi)
	movb	$0, (%rsi)
	addq	$40, %rsp
	popq	%rsi
	popq	%rbp
	retq
.LBB1_5:
.Ltmp124:
	callq	_invalid_parameter_noinfo_noreturn
.Ltmp125:
# %bb.6:
	int3
	.seh_handlerdata
	.long	("$cppxdata$??1?$pair@$$CBV?$basic_string@DU?$char_traits@D@std@@V?$allocator@D@2@@std@@V?$function@$$A6A_K_K@Z@2@@std@@QEAA@XZ")@IMGREL
	.section	.text,"xr",discard,"??1?$pair@$$CBV?$basic_string@DU?$char_traits@D@std@@V?$allocator@D@2@@std@@V?$function@$$A6A_K_K@Z@2@@std@@QEAA@XZ"
	.seh_endproc
	.def	"?dtor$7@?0???1?$pair@$$CBV?$basic_string@DU?$char_traits@D@std@@V?$allocator@D@2@@std@@V?$function@$$A6A_K_K@Z@2@@std@@QEAA@XZ@4HA";
	.scl	3;
	.type	32;
	.endef
	.p2align	4, 0x90
"?dtor$7@?0???1?$pair@$$CBV?$basic_string@DU?$char_traits@D@std@@V?$allocator@D@2@@std@@V?$function@$$A6A_K_K@Z@2@@std@@QEAA@XZ@4HA":
.seh_proc "?dtor$7@?0???1?$pair@$$CBV?$basic_string@DU?$char_traits@D@std@@V?$allocator@D@2@@std@@V?$function@$$A6A_K_K@Z@2@@std@@QEAA@XZ@4HA"
.LBB1_7:
	movq	%rdx, 16(%rsp)
	pushq	%rbp
	.seh_pushreg %rbp
	pushq	%rsi
	.seh_pushreg %rsi
	subq	$40, %rsp
	.seh_stackalloc 40
	leaq	32(%rdx), %rbp
	.seh_endprologue
	callq	__std_terminate
	int3
.Lfunc_end1:
	.seh_handlerdata
	.section	.text,"xr",discard,"??1?$pair@$$CBV?$basic_string@DU?$char_traits@D@std@@V?$allocator@D@2@@std@@V?$function@$$A6A_K_K@Z@2@@std@@QEAA@XZ"
	.seh_endproc
	.section	.xdata,"dr",associative,"??1?$pair@$$CBV?$basic_string@DU?$char_traits@D@std@@V?$allocator@D@2@@std@@V?$function@$$A6A_K_K@Z@2@@std@@QEAA@XZ"
	.p2align	2, 0x0
"$cppxdata$??1?$pair@$$CBV?$basic_string@DU?$char_traits@D@std@@V?$allocator@D@2@@std@@V?$function@$$A6A_K_K@Z@2@@std@@QEAA@XZ":
	.long	429065506                       # MagicNumber
	.long	1                               # MaxState
	.long	("$stateUnwindMap$??1?$pair@$$CBV?$basic_string@DU?$char_traits@D@std@@V?$allocator@D@2@@std@@V?$function@$$A6A_K_K@Z@2@@std@@QEAA@XZ")@IMGREL # UnwindMap
	.long	0                               # NumTryBlocks
	.long	0                               # TryBlockMap
	.long	3                               # IPMapEntries
	.long	("$ip2state$??1?$pair@$$CBV?$basic_string@DU?$char_traits@D@std@@V?$allocator@D@2@@std@@V?$function@$$A6A_K_K@Z@2@@std@@QEAA@XZ")@IMGREL # IPToStateXData
	.long	32                              # UnwindHelp
	.long	0                               # ESTypeList
	.long	1                               # EHFlags
"$stateUnwindMap$??1?$pair@$$CBV?$basic_string@DU?$char_traits@D@std@@V?$allocator@D@2@@std@@V?$function@$$A6A_K_K@Z@2@@std@@QEAA@XZ":
	.long	-1                              # ToState
	.long	"?dtor$7@?0???1?$pair@$$CBV?$basic_string@DU?$char_traits@D@std@@V?$allocator@D@2@@std@@V?$function@$$A6A_K_K@Z@2@@std@@QEAA@XZ@4HA"@IMGREL # Action
"$ip2state$??1?$pair@$$CBV?$basic_string@DU?$char_traits@D@std@@V?$allocator@D@2@@std@@V?$function@$$A6A_K_K@Z@2@@std@@QEAA@XZ":
	.long	.Lfunc_begin1@IMGREL            # IP
	.long	-1                              # ToState
	.long	.Ltmp124@IMGREL+1               # IP
	.long	0                               # ToState
	.long	.Ltmp125@IMGREL+1               # IP
	.long	-1                              # ToState
	.section	.text,"xr",discard,"??1?$pair@$$CBV?$basic_string@DU?$char_traits@D@std@@V?$allocator@D@2@@std@@V?$function@$$A6A_K_K@Z@2@@std@@QEAA@XZ"
                                        # -- End function
	.def	"??1?$pair@$$CBV?$basic_string@DU?$char_traits@D@std@@V?$allocator@D@2@@std@@V?$function@$$A6A?AV?$basic_string@DU?$char_traits@D@std@@V?$allocator@D@2@@std@@V12@@Z@2@@std@@QEAA@XZ";
	.scl	2;
	.type	32;
	.endef
	.section	.text,"xr",discard,"??1?$pair@$$CBV?$basic_string@DU?$char_traits@D@std@@V?$allocator@D@2@@std@@V?$function@$$A6A?AV?$basic_string@DU?$char_traits@D@std@@V?$allocator@D@2@@std@@V12@@Z@2@@std@@QEAA@XZ"
	.globl	"??1?$pair@$$CBV?$basic_string@DU?$char_traits@D@std@@V?$allocator@D@2@@std@@V?$function@$$A6A?AV?$basic_string@DU?$char_traits@D@std@@V?$allocator@D@2@@std@@V12@@Z@2@@std@@QEAA@XZ" # -- Begin function ??1?$pair@$$CBV?$basic_string@DU?$char_traits@D@std@@V?$allocator@D@2@@std@@V?$function@$$A6A?AV?$basic_string@DU?$char_traits@D@std@@V?$allocator@D@2@@std@@V12@@Z@2@@std@@QEAA@XZ
	.p2align	4, 0x90
"??1?$pair@$$CBV?$basic_string@DU?$char_traits@D@std@@V?$allocator@D@2@@std@@V?$function@$$A6A?AV?$basic_string@DU?$char_traits@D@std@@V?$allocator@D@2@@std@@V12@@Z@2@@std@@QEAA@XZ": # @"??1?$pair@$$CBV?$basic_string@DU?$char_traits@D@std@@V?$allocator@D@2@@std@@V?$function@$$A6A?AV?$basic_string@DU?$char_traits@D@std@@V?$allocator@D@2@@std@@V12@@Z@2@@std@@QEAA@XZ"
.Lfunc_begin2:
.seh_proc "??1?$pair@$$CBV?$basic_string@DU?$char_traits@D@std@@V?$allocator@D@2@@std@@V?$function@$$A6A?AV?$basic_string@DU?$char_traits@D@std@@V?$allocator@D@2@@std@@V12@@Z@2@@std@@QEAA@XZ"
	.seh_handler __CxxFrameHandler3, @unwind, @except
# %bb.0:
	pushq	%rbp
	.seh_pushreg %rbp
	pushq	%rsi
	.seh_pushreg %rsi
	subq	$40, %rsp
	.seh_stackalloc 40
	leaq	32(%rsp), %rbp
	.seh_setframe %rbp, 32
	.seh_endprologue
	movq	$-2, (%rbp)
	movq	%rcx, %rsi
	movq	88(%rcx), %rcx
	testq	%rcx, %rcx
	je	.LBB2_2
# %bb.1:
	leaq	32(%rsi), %rax
	cmpq	%rax, %rcx
	setne	%dl
	movq	(%rcx), %rax
	callq	*32(%rax)
	movq	$0, 88(%rsi)
.LBB2_2:
	movq	24(%rsi), %rax
	cmpq	$16, %rax
	jb	.LBB2_10
# %bb.3:
	movq	(%rsi), %rcx
	leaq	1(%rax), %rdx
	cmpq	$4096, %rdx                     # imm = 0x1000
	jb	.LBB2_9
# %bb.4:
	movq	-8(%rcx), %r8
	addq	$-8, %rcx
	subq	%r8, %rcx
	cmpq	$32, %rcx
	jae	.LBB2_5
# %bb.8:
	addq	$40, %rax
	movq	%rax, %rdx
	movq	%r8, %rcx
.LBB2_9:
	callq	"??3@YAXPEAX_K@Z"
.LBB2_10:
	movq	$0, 16(%rsi)
	movq	$15, 24(%rsi)
	movb	$0, (%rsi)
	addq	$40, %rsp
	popq	%rsi
	popq	%rbp
	retq
.LBB2_5:
.Ltmp126:
	callq	_invalid_parameter_noinfo_noreturn
.Ltmp127:
# %bb.6:
	int3
	.seh_handlerdata
	.long	("$cppxdata$??1?$pair@$$CBV?$basic_string@DU?$char_traits@D@std@@V?$allocator@D@2@@std@@V?$function@$$A6A?AV?$basic_string@DU?$char_traits@D@std@@V?$allocator@D@2@@std@@V12@@Z@2@@std@@QEAA@XZ")@IMGREL
	.section	.text,"xr",discard,"??1?$pair@$$CBV?$basic_string@DU?$char_traits@D@std@@V?$allocator@D@2@@std@@V?$function@$$A6A?AV?$basic_string@DU?$char_traits@D@std@@V?$allocator@D@2@@std@@V12@@Z@2@@std@@QEAA@XZ"
	.seh_endproc
	.def	"?dtor$7@?0???1?$pair@$$CBV?$basic_string@DU?$char_traits@D@std@@V?$allocator@D@2@@std@@V?$function@$$A6A?AV?$basic_string@DU?$char_traits@D@std@@V?$allocator@D@2@@std@@V12@@Z@2@@std@@QEAA@XZ@4HA";
	.scl	3;
	.type	32;
	.endef
	.p2align	4, 0x90
"?dtor$7@?0???1?$pair@$$CBV?$basic_string@DU?$char_traits@D@std@@V?$allocator@D@2@@std@@V?$function@$$A6A?AV?$basic_string@DU?$char_traits@D@std@@V?$allocator@D@2@@std@@V12@@Z@2@@std@@QEAA@XZ@4HA":
.seh_proc "?dtor$7@?0???1?$pair@$$CBV?$basic_string@DU?$char_traits@D@std@@V?$allocator@D@2@@std@@V?$function@$$A6A?AV?$basic_string@DU?$char_traits@D@std@@V?$allocator@D@2@@std@@V12@@Z@2@@std@@QEAA@XZ@4HA"
.LBB2_7:
	movq	%rdx, 16(%rsp)
	pushq	%rbp
	.seh_pushreg %rbp
	pushq	%rsi
	.seh_pushreg %rsi
	subq	$40, %rsp
	.seh_stackalloc 40
	leaq	32(%rdx), %rbp
	.seh_endprologue
	callq	__std_terminate
	int3
.Lfunc_end2:
	.seh_handlerdata
	.section	.text,"xr",discard,"??1?$pair@$$CBV?$basic_string@DU?$char_traits@D@std@@V?$allocator@D@2@@std@@V?$function@$$A6A?AV?$basic_string@DU?$char_traits@D@std@@V?$allocator@D@2@@std@@V12@@Z@2@@std@@QEAA@XZ"
	.seh_endproc
	.section	.xdata,"dr",associative,"??1?$pair@$$CBV?$basic_string@DU?$char_traits@D@std@@V?$allocator@D@2@@std@@V?$function@$$A6A?AV?$basic_string@DU?$char_traits@D@std@@V?$allocator@D@2@@std@@V12@@Z@2@@std@@QEAA@XZ"
	.p2align	2, 0x0
"$cppxdata$??1?$pair@$$CBV?$basic_string@DU?$char_traits@D@std@@V?$allocator@D@2@@std@@V?$function@$$A6A?AV?$basic_string@DU?$char_traits@D@std@@V?$allocator@D@2@@std@@V12@@Z@2@@std@@QEAA@XZ":
	.long	429065506                       # MagicNumber
	.long	1                               # MaxState
	.long	("$stateUnwindMap$??1?$pair@$$CBV?$basic_string@DU?$char_traits@D@std@@V?$allocator@D@2@@std@@V?$function@$$A6A?AV?$basic_string@DU?$char_traits@D@std@@V?$allocator@D@2@@std@@V12@@Z@2@@std@@QEAA@XZ")@IMGREL # UnwindMap
	.long	0                               # NumTryBlocks
	.long	0                               # TryBlockMap
	.long	3                               # IPMapEntries
	.long	("$ip2state$??1?$pair@$$CBV?$basic_string@DU?$char_traits@D@std@@V?$allocator@D@2@@std@@V?$function@$$A6A?AV?$basic_string@DU?$char_traits@D@std@@V?$allocator@D@2@@std@@V12@@Z@2@@std@@QEAA@XZ")@IMGREL # IPToStateXData
	.long	32                              # UnwindHelp
	.long	0                               # ESTypeList
	.long	1                               # EHFlags
"$stateUnwindMap$??1?$pair@$$CBV?$basic_string@DU?$char_traits@D@std@@V?$allocator@D@2@@std@@V?$function@$$A6A?AV?$basic_string@DU?$char_traits@D@std@@V?$allocator@D@2@@std@@V12@@Z@2@@std@@QEAA@XZ":
	.long	-1                              # ToState
	.long	"?dtor$7@?0???1?$pair@$$CBV?$basic_string@DU?$char_traits@D@std@@V?$allocator@D@2@@std@@V?$function@$$A6A?AV?$basic_string@DU?$char_traits@D@std@@V?$allocator@D@2@@std@@V12@@Z@2@@std@@QEAA@XZ@4HA"@IMGREL # Action
"$ip2state$??1?$pair@$$CBV?$basic_string@DU?$char_traits@D@std@@V?$allocator@D@2@@std@@V?$function@$$A6A?AV?$basic_string@DU?$char_traits@D@std@@V?$allocator@D@2@@std@@V12@@Z@2@@std@@QEAA@XZ":
	.long	.Lfunc_begin2@IMGREL            # IP
	.long	-1                              # ToState
	.long	.Ltmp126@IMGREL+1               # IP
	.long	0                               # ToState
	.long	.Ltmp127@IMGREL+1               # IP
	.long	-1                              # ToState
	.section	.text,"xr",discard,"??1?$pair@$$CBV?$basic_string@DU?$char_traits@D@std@@V?$allocator@D@2@@std@@V?$function@$$A6A?AV?$basic_string@DU?$char_traits@D@std@@V?$allocator@D@2@@std@@V12@@Z@2@@std@@QEAA@XZ"
                                        # -- End function
	.def	"??$getline@DU?$char_traits@D@std@@V?$allocator@D@2@@std@@YAAEAV?$basic_istream@DU?$char_traits@D@std@@@0@AEAV10@AEAV?$basic_string@DU?$char_traits@D@std@@V?$allocator@D@2@@0@@Z";
	.scl	2;
	.type	32;
	.endef
	.section	.text,"xr",discard,"??$getline@DU?$char_traits@D@std@@V?$allocator@D@2@@std@@YAAEAV?$basic_istream@DU?$char_traits@D@std@@@0@AEAV10@AEAV?$basic_string@DU?$char_traits@D@std@@V?$allocator@D@2@@0@@Z"
	.globl	"??$getline@DU?$char_traits@D@std@@V?$allocator@D@2@@std@@YAAEAV?$basic_istream@DU?$char_traits@D@std@@@0@AEAV10@AEAV?$basic_string@DU?$char_traits@D@std@@V?$allocator@D@2@@0@@Z" # -- Begin function ??$getline@DU?$char_traits@D@std@@V?$allocator@D@2@@std@@YAAEAV?$basic_istream@DU?$char_traits@D@std@@@0@AEAV10@AEAV?$basic_string@DU?$char_traits@D@std@@V?$allocator@D@2@@0@@Z
	.p2align	4, 0x90
"??$getline@DU?$char_traits@D@std@@V?$allocator@D@2@@std@@YAAEAV?$basic_istream@DU?$char_traits@D@std@@@0@AEAV10@AEAV?$basic_string@DU?$char_traits@D@std@@V?$allocator@D@2@@0@@Z": # @"??$getline@DU?$char_traits@D@std@@V?$allocator@D@2@@std@@YAAEAV?$basic_istream@DU?$char_traits@D@std@@@0@AEAV10@AEAV?$basic_string@DU?$char_traits@D@std@@V?$allocator@D@2@@0@@Z"
.Lfunc_begin3:
.seh_proc "??$getline@DU?$char_traits@D@std@@V?$allocator@D@2@@std@@YAAEAV?$basic_istream@DU?$char_traits@D@std@@@0@AEAV10@AEAV?$basic_string@DU?$char_traits@D@std@@V?$allocator@D@2@@0@@Z"
	.seh_handler __CxxFrameHandler3, @unwind, @except
# %bb.0:
	pushq	%rbp
	.seh_pushreg %rbp
	pushq	%rsi
	.seh_pushreg %rsi
	pushq	%rdi
	.seh_pushreg %rdi
	pushq	%rbx
	.seh_pushreg %rbx
	subq	$56, %rsp
	.seh_stackalloc 56
	leaq	48(%rsp), %rbp
	.seh_setframe %rbp, 48
	.seh_endprologue
	movq	$-2, (%rbp)
	movq	%rdx, %rsi
	movq	%rcx, %rdi
	movq	(%rcx), %rax
	movslq	4(%rax), %rax
	movq	64(%rcx,%rax), %rax
	movq	8(%rax), %rcx
	movq	%rcx, -8(%rbp)
	movq	(%rcx), %rax
	callq	*8(%rax)
.Ltmp128:
	leaq	-16(%rbp), %rcx
	callq	"??$use_facet@V?$ctype@D@std@@@std@@YAAEBV?$ctype@D@0@AEBVlocale@0@@Z"
.Ltmp129:
# %bb.1:
	movq	(%rax), %r8
.Ltmp130:
	movq	%rax, %rcx
	movb	$10, %dl
	callq	*64(%r8)
.Ltmp131:
# %bb.2:
	movl	%eax, %ebx
	movq	-8(%rbp), %rcx
	testq	%rcx, %rcx
	je	.LBB3_5
# %bb.3:
	movq	(%rcx), %rax
	callq	*16(%rax)
	testq	%rax, %rax
	je	.LBB3_5
# %bb.4:
	movq	(%rax), %r8
	movq	%rax, %rcx
	movl	$1, %edx
	callq	*(%r8)
.LBB3_5:
	movq	%rdi, %rcx
	movq	%rsi, %rdx
	movl	%ebx, %r8d
	callq	"??$getline@DU?$char_traits@D@std@@V?$allocator@D@2@@std@@YAAEAV?$basic_istream@DU?$char_traits@D@std@@@0@$$QEAV10@AEAV?$basic_string@DU?$char_traits@D@std@@V?$allocator@D@2@@0@D@Z"
	nop
	addq	$56, %rsp
	popq	%rbx
	popq	%rdi
	popq	%rsi
	popq	%rbp
	retq
	.seh_handlerdata
	.long	("$cppxdata$??$getline@DU?$char_traits@D@std@@V?$allocator@D@2@@std@@YAAEAV?$basic_istream@DU?$char_traits@D@std@@@0@AEAV10@AEAV?$basic_string@DU?$char_traits@D@std@@V?$allocator@D@2@@0@@Z")@IMGREL
	.section	.text,"xr",discard,"??$getline@DU?$char_traits@D@std@@V?$allocator@D@2@@std@@YAAEAV?$basic_istream@DU?$char_traits@D@std@@@0@AEAV10@AEAV?$basic_string@DU?$char_traits@D@std@@V?$allocator@D@2@@0@@Z"
	.seh_endproc
	.def	"?dtor$6@?0???$getline@DU?$char_traits@D@std@@V?$allocator@D@2@@std@@YAAEAV?$basic_istream@DU?$char_traits@D@std@@@0@AEAV10@AEAV?$basic_string@DU?$char_traits@D@std@@V?$allocator@D@2@@0@@Z@4HA";
	.scl	3;
	.type	32;
	.endef
	.p2align	4, 0x90
"?dtor$6@?0???$getline@DU?$char_traits@D@std@@V?$allocator@D@2@@std@@YAAEAV?$basic_istream@DU?$char_traits@D@std@@@0@AEAV10@AEAV?$basic_string@DU?$char_traits@D@std@@V?$allocator@D@2@@0@@Z@4HA":
.seh_proc "?dtor$6@?0???$getline@DU?$char_traits@D@std@@V?$allocator@D@2@@std@@YAAEAV?$basic_istream@DU?$char_traits@D@std@@@0@AEAV10@AEAV?$basic_string@DU?$char_traits@D@std@@V?$allocator@D@2@@0@@Z@4HA"
.LBB3_6:
	movq	%rdx, 16(%rsp)
	pushq	%rbp
	.seh_pushreg %rbp
	pushq	%rsi
	.seh_pushreg %rsi
	pushq	%rdi
	.seh_pushreg %rdi
	pushq	%rbx
	.seh_pushreg %rbx
	subq	$40, %rsp
	.seh_stackalloc 40
	leaq	48(%rdx), %rbp
	.seh_endprologue
	movq	-8(%rbp), %rcx
	testq	%rcx, %rcx
	je	.LBB3_9
# %bb.7:
	movq	(%rcx), %rax
	callq	*16(%rax)
	testq	%rax, %rax
	je	.LBB3_9
# %bb.8:
	movq	(%rax), %r8
	movq	%rax, %rcx
	movl	$1, %edx
	callq	*(%r8)
.LBB3_9:
	nop
	addq	$40, %rsp
	popq	%rbx
	popq	%rdi
	popq	%rsi
	popq	%rbp
	retq                                    # CLEANUPRET
.Lfunc_end3:
	.seh_handlerdata
	.section	.text,"xr",discard,"??$getline@DU?$char_traits@D@std@@V?$allocator@D@2@@std@@YAAEAV?$basic_istream@DU?$char_traits@D@std@@@0@AEAV10@AEAV?$basic_string@DU?$char_traits@D@std@@V?$allocator@D@2@@0@@Z"
	.seh_endproc
	.section	.xdata,"dr",associative,"??$getline@DU?$char_traits@D@std@@V?$allocator@D@2@@std@@YAAEAV?$basic_istream@DU?$char_traits@D@std@@@0@AEAV10@AEAV?$basic_string@DU?$char_traits@D@std@@V?$allocator@D@2@@0@@Z"
	.p2align	2, 0x0
"$cppxdata$??$getline@DU?$char_traits@D@std@@V?$allocator@D@2@@std@@YAAEAV?$basic_istream@DU?$char_traits@D@std@@@0@AEAV10@AEAV?$basic_string@DU?$char_traits@D@std@@V?$allocator@D@2@@0@@Z":
	.long	429065506                       # MagicNumber
	.long	1                               # MaxState
	.long	("$stateUnwindMap$??$getline@DU?$char_traits@D@std@@V?$allocator@D@2@@std@@YAAEAV?$basic_istream@DU?$char_traits@D@std@@@0@AEAV10@AEAV?$basic_string@DU?$char_traits@D@std@@V?$allocator@D@2@@0@@Z")@IMGREL # UnwindMap
	.long	0                               # NumTryBlocks
	.long	0                               # TryBlockMap
	.long	3                               # IPMapEntries
	.long	("$ip2state$??$getline@DU?$char_traits@D@std@@V?$allocator@D@2@@std@@YAAEAV?$basic_istream@DU?$char_traits@D@std@@@0@AEAV10@AEAV?$basic_string@DU?$char_traits@D@std@@V?$allocator@D@2@@0@@Z")@IMGREL # IPToStateXData
	.long	48                              # UnwindHelp
	.long	0                               # ESTypeList
	.long	1                               # EHFlags
"$stateUnwindMap$??$getline@DU?$char_traits@D@std@@V?$allocator@D@2@@std@@YAAEAV?$basic_istream@DU?$char_traits@D@std@@@0@AEAV10@AEAV?$basic_string@DU?$char_traits@D@std@@V?$allocator@D@2@@0@@Z":
	.long	-1                              # ToState
	.long	"?dtor$6@?0???$getline@DU?$char_traits@D@std@@V?$allocator@D@2@@std@@YAAEAV?$basic_istream@DU?$char_traits@D@std@@@0@AEAV10@AEAV?$basic_string@DU?$char_traits@D@std@@V?$allocator@D@2@@0@@Z@4HA"@IMGREL # Action
"$ip2state$??$getline@DU?$char_traits@D@std@@V?$allocator@D@2@@std@@YAAEAV?$basic_istream@DU?$char_traits@D@std@@@0@AEAV10@AEAV?$basic_string@DU?$char_traits@D@std@@V?$allocator@D@2@@0@@Z":
	.long	.Lfunc_begin3@IMGREL            # IP
	.long	-1                              # ToState
	.long	.Ltmp128@IMGREL+1               # IP
	.long	0                               # ToState
	.long	.Ltmp131@IMGREL+1               # IP
	.long	-1                              # ToState
	.section	.text,"xr",discard,"??$getline@DU?$char_traits@D@std@@V?$allocator@D@2@@std@@YAAEAV?$basic_istream@DU?$char_traits@D@std@@@0@AEAV10@AEAV?$basic_string@DU?$char_traits@D@std@@V?$allocator@D@2@@0@@Z"
                                        # -- End function
	.def	"??$?6U?$char_traits@D@std@@@std@@YAAEAV?$basic_ostream@DU?$char_traits@D@std@@@0@AEAV10@PEBD@Z";
	.scl	2;
	.type	32;
	.endef
	.section	.text,"xr",discard,"??$?6U?$char_traits@D@std@@@std@@YAAEAV?$basic_ostream@DU?$char_traits@D@std@@@0@AEAV10@PEBD@Z"
	.globl	"??$?6U?$char_traits@D@std@@@std@@YAAEAV?$basic_ostream@DU?$char_traits@D@std@@@0@AEAV10@PEBD@Z" # -- Begin function ??$?6U?$char_traits@D@std@@@std@@YAAEAV?$basic_ostream@DU?$char_traits@D@std@@@0@AEAV10@PEBD@Z
	.p2align	4, 0x90
"??$?6U?$char_traits@D@std@@@std@@YAAEAV?$basic_ostream@DU?$char_traits@D@std@@@0@AEAV10@PEBD@Z": # @"??$?6U?$char_traits@D@std@@@std@@YAAEAV?$basic_ostream@DU?$char_traits@D@std@@@0@AEAV10@PEBD@Z"
.Lfunc_begin4:
.seh_proc "??$?6U?$char_traits@D@std@@@std@@YAAEAV?$basic_ostream@DU?$char_traits@D@std@@@0@AEAV10@PEBD@Z"
	.seh_handler __CxxFrameHandler3, @unwind, @except
# %bb.0:
	pushq	%rbp
	.seh_pushreg %rbp
	pushq	%r15
	.seh_pushreg %r15
	pushq	%r14
	.seh_pushreg %r14
	pushq	%rsi
	.seh_pushreg %rsi
	pushq	%rdi
	.seh_pushreg %rdi
	pushq	%rbx
	.seh_pushreg %rbx
	subq	$152, %rsp
	.seh_stackalloc 152
	leaq	128(%rsp), %rbp
	.seh_setframe %rbp, 128
	.seh_endprologue
	movq	$-2, 16(%rbp)
	movq	%rdx, %rdi
	movq	%rcx, %r15
	movq	%rdx, %rcx
	callq	strlen
	movq	%rax, %rsi
	movq	(%r15), %rax
	movslq	4(%rax), %rcx
	movq	40(%r15,%rcx), %rcx
	xorl	%edx, %edx
	movq	%rcx, %rbx
	subq	%rsi, %rbx
	cmovleq	%rdx, %rbx
	testq	%rcx, %rcx
	cmovleq	%rdx, %rbx
	movq	%r15, -16(%rbp)
	movslq	4(%rax), %rax
	movq	72(%r15,%rax), %rcx
	testq	%rcx, %rcx
	je	.LBB4_2
# %bb.1:
	movq	(%rcx), %rax
	callq	*8(%rax)
.LBB4_2:
	movq	(%r15), %rax
	movslq	4(%rax), %rax
	cmpl	$0, 16(%r15,%rax)
	je	.LBB4_4
# %bb.3:
	movb	$0, -8(%rbp)
	cmpb	$0, -8(%rbp)
	jne	.LBB4_11
	jmp	.LBB4_10
.LBB4_4:
	movq	80(%r15,%rax), %rcx
	testq	%rcx, %rcx
	je	.LBB4_6
# %bb.5:
	cmpq	%r15, %rcx
	je	.LBB4_6
# %bb.7:
.Ltmp132:
	callq	"?flush@?$basic_ostream@DU?$char_traits@D@std@@@std@@QEAAAEAV12@XZ"
.Ltmp133:
# %bb.8:
	movq	(%r15), %rax
	movslq	4(%rax), %rax
	cmpl	$0, 16(%r15,%rax)
	sete	-8(%rbp)
	cmpb	$0, -8(%rbp)
	jne	.LBB4_11
.LBB4_10:
	movl	$4, %r14d
	jmp	.LBB4_39
.LBB4_6:
	movb	$1, -8(%rbp)
	cmpb	$0, -8(%rbp)
	je	.LBB4_10
.LBB4_11:
	movq	(%r15), %rax
	movslq	4(%rax), %rax
	movl	$448, %ecx                      # imm = 0x1C0
	andl	24(%r15,%rax), %ecx
	xorl	%r14d, %r14d
	movb	$1, %al
	cmpl	$64, %ecx
	movq	%r15, (%rbp)                    # 8-byte Spill
	je	.LBB4_22
# %bb.12:
	testq	%rbx, %rbx
	jle	.LBB4_22
	.p2align	4, 0x90
.LBB4_13:                               # =>This Inner Loop Header: Depth=1
	movq	(%r15), %rax
	movslq	4(%rax), %rax
	movq	72(%r15,%rax), %rcx
	movzbl	88(%r15,%rax), %edx
	movzbl	%dl, %eax
	movq	64(%rcx), %r8
	movq	(%r8), %r9
	testq	%r9, %r9
	je	.LBB4_16
# %bb.14:                               #   in Loop: Header=BB4_13 Depth=1
	movq	88(%rcx), %r10
	movl	(%r10), %r11d
	testl	%r11d, %r11d
	jle	.LBB4_16
# %bb.15:                               #   in Loop: Header=BB4_13 Depth=1
	decl	%r11d
	movl	%r11d, (%r10)
	leaq	1(%r9), %rcx
	movq	%rcx, (%r8)
	movb	%dl, (%r9)
	jmp	.LBB4_18
	.p2align	4, 0x90
.LBB4_16:                               #   in Loop: Header=BB4_13 Depth=1
	movq	(%rcx), %rdx
	movq	24(%rdx), %r8
	movl	$0, 12(%rbp)
.Ltmp134:
	movl	%eax, %edx
	callq	*%r8
.Ltmp135:
# %bb.17:                               #   in Loop: Header=BB4_13 Depth=1
	movq	(%rbp), %r15                    # 8-byte Reload
.LBB4_18:                               #   in Loop: Header=BB4_13 Depth=1
	cmpl	$-1, %eax
	setne	%al
	je	.LBB4_19
# %bb.20:                               #   in Loop: Header=BB4_13 Depth=1
	leaq	-1(%rbx), %rcx
	cmpq	$1, %rbx
	movq	%rcx, %rbx
	jg	.LBB4_13
# %bb.21:
	xorl	%r14d, %r14d
	xorl	%ebx, %ebx
.LBB4_22:
	testb	%al, %al
	jne	.LBB4_23
.LBB4_25:
	testl	%r14d, %r14d
	je	.LBB4_26
	jmp	.LBB4_35
.LBB4_19:
	movl	$4, %r14d
	testb	%al, %al
	je	.LBB4_25
.LBB4_23:
	movq	(%r15), %rax
	movslq	4(%rax), %rax
	movq	72(%r15,%rax), %rcx
	movq	(%rcx), %rax
	movq	72(%rax), %rax
	movl	$0, 12(%rbp)
.Ltmp136:
	movq	%rdi, %rdx
	movq	%rsi, %r8
	callq	*%rax
.Ltmp137:
# %bb.24:
	xorl	%r14d, %r14d
	cmpq	%rsi, %rax
	setne	%r14b
	shll	$2, %r14d
	movq	(%rbp), %r15                    # 8-byte Reload
	testl	%r14d, %r14d
	jne	.LBB4_35
.LBB4_26:
	testq	%rbx, %rbx
	jle	.LBB4_35
	.p2align	4, 0x90
.LBB4_27:                               # =>This Inner Loop Header: Depth=1
	movq	(%r15), %rax
	movslq	4(%rax), %rax
	movq	72(%r15,%rax), %rcx
	movzbl	88(%r15,%rax), %edx
	movzbl	%dl, %eax
	movq	64(%rcx), %r8
	movq	(%r8), %r9
	testq	%r9, %r9
	je	.LBB4_30
# %bb.28:                               #   in Loop: Header=BB4_27 Depth=1
	movq	88(%rcx), %r10
	movl	(%r10), %r11d
	testl	%r11d, %r11d
	jle	.LBB4_30
# %bb.29:                               #   in Loop: Header=BB4_27 Depth=1
	decl	%r11d
	movl	%r11d, (%r10)
	leaq	1(%r9), %rcx
	movq	%rcx, (%r8)
	movb	%dl, (%r9)
	cmpl	$-1, %eax
	jne	.LBB4_34
	jmp	.LBB4_33
	.p2align	4, 0x90
.LBB4_30:                               #   in Loop: Header=BB4_27 Depth=1
	movq	(%rcx), %rdx
	movq	24(%rdx), %r8
	movl	%r14d, 12(%rbp)
.Ltmp138:
	movl	%eax, %edx
	callq	*%r8
.Ltmp139:
# %bb.31:                               #   in Loop: Header=BB4_27 Depth=1
	movq	(%rbp), %r15                    # 8-byte Reload
	cmpl	$-1, %eax
	je	.LBB4_33
.LBB4_34:                               #   in Loop: Header=BB4_27 Depth=1
	leaq	-1(%rbx), %rax
	cmpq	$1, %rbx
	movq	%rax, %rbx
	jg	.LBB4_27
	jmp	.LBB4_35
.LBB4_33:
	movl	$4, %r14d
.LBB4_35:
	movq	(%r15), %rax
	movslq	4(%rax), %rax
	movq	$0, 40(%r15,%rax)
.LBB4_39:
	movq	(%r15), %rax
	movslq	4(%rax), %rax
	orl	16(%r15,%rax), %r14d
	xorl	%ecx, %ecx
	cmpq	$0, 72(%r15,%rax)
	sete	%cl
	shll	$2, %ecx
	andl	$23, %r14d
	orl	%ecx, %r14d
	movl	%r14d, 16(%r15,%rax)
	andl	20(%r15,%rax), %r14d
	jne	.LBB4_40
# %bb.43:
	callq	"?uncaught_exception@std@@YA_NXZ"
	testb	%al, %al
	jne	.LBB4_45
# %bb.44:
	movq	-16(%rbp), %rcx
.Ltmp146:
	callq	"?_Osfx@?$basic_ostream@DU?$char_traits@D@std@@@std@@QEAAXXZ"
.Ltmp147:
.LBB4_45:
	movq	-16(%rbp), %rax
	movq	(%rax), %rcx
	movslq	4(%rcx), %rcx
	movq	72(%rax,%rcx), %rcx
	testq	%rcx, %rcx
	je	.LBB4_47
# %bb.46:
	movq	(%rcx), %rax
.Ltmp148:
	callq	*16(%rax)
.Ltmp149:
.LBB4_47:
	movq	%r15, %rax
	addq	$152, %rsp
	popq	%rbx
	popq	%rdi
	popq	%rsi
	popq	%r14
	popq	%r15
	popq	%rbp
	retq
.LBB4_40:
	testb	$2, %r14b
	leaq	"??_C@_0BF@OOHOMBOF@ios_base?3?3eofbit?5set?$AA@"(%rip), %rax
	leaq	"??_C@_0BG@FMKFHCIL@ios_base?3?3failbit?5set?$AA@"(%rip), %rcx
	cmoveq	%rax, %rcx
	testb	$4, %r14b
	leaq	"??_C@_0BF@PHHKMMFD@ios_base?3?3badbit?5set?$AA@"(%rip), %rsi
	cmoveq	%rcx, %rsi
	leaq	-48(%rbp), %rcx
	movl	$1, %edx
	callq	"?make_error_code@std@@YA?AVerror_code@1@W4io_errc@1@@Z"
	movups	-48(%rbp), %xmm0
	movaps	%xmm0, -32(%rbp)
.Ltmp142:
	leaq	-88(%rbp), %rcx
	leaq	-32(%rbp), %rdx
	movq	%rsi, %r8
	callq	"??0system_error@std@@QEAA@Verror_code@1@PEBD@Z"
.Ltmp143:
# %bb.41:
	leaq	"??_7failure@ios_base@std@@6B@"(%rip), %rax
	movq	%rax, -88(%rbp)
.Ltmp144:
	leaq	"_TI5?AVfailure@ios_base@std@@"(%rip), %rdx
	leaq	-88(%rbp), %rcx
	callq	_CxxThrowException
.Ltmp145:
# %bb.42:
.LBB4_38:                               # Block address taken
$ehgcr_4_38:
	movl	12(%rbp), %r14d
	movq	(%rbp), %r15                    # 8-byte Reload
	jmp	.LBB4_39
	.seh_handlerdata
	.long	("$cppxdata$??$?6U?$char_traits@D@std@@@std@@YAAEAV?$basic_ostream@DU?$char_traits@D@std@@@0@AEAV10@PEBD@Z")@IMGREL
	.section	.text,"xr",discard,"??$?6U?$char_traits@D@std@@@std@@YAAEAV?$basic_ostream@DU?$char_traits@D@std@@@0@AEAV10@PEBD@Z"
	.seh_endproc
	.def	"?catch$36@?0???$?6U?$char_traits@D@std@@@std@@YAAEAV?$basic_ostream@DU?$char_traits@D@std@@@0@AEAV10@PEBD@Z@4HA";
	.scl	3;
	.type	32;
	.endef
	.p2align	4, 0x90
"?catch$36@?0???$?6U?$char_traits@D@std@@@std@@YAAEAV?$basic_ostream@DU?$char_traits@D@std@@@0@AEAV10@PEBD@Z@4HA":
.seh_proc "?catch$36@?0???$?6U?$char_traits@D@std@@@std@@YAAEAV?$basic_ostream@DU?$char_traits@D@std@@@0@AEAV10@PEBD@Z@4HA"
	.seh_handler __CxxFrameHandler3, @unwind, @except
.LBB4_36:
	movq	%rdx, 16(%rsp)
	pushq	%rbp
	.seh_pushreg %rbp
	pushq	%r15
	.seh_pushreg %r15
	pushq	%r14
	.seh_pushreg %r14
	pushq	%rsi
	.seh_pushreg %rsi
	pushq	%rdi
	.seh_pushreg %rdi
	pushq	%rbx
	.seh_pushreg %rbx
	subq	$40, %rsp
	.seh_stackalloc 40
	leaq	128(%rdx), %rbp
	.seh_endprologue
	movq	(%rbp), %rdx                    # 8-byte Reload
	movq	(%rdx), %rax
	movslq	4(%rax), %rcx
	addq	%rdx, %rcx
.Ltmp140:
	movl	$4, %edx
	movb	$1, %r8b
	callq	"?setstate@?$basic_ios@DU?$char_traits@D@std@@@std@@QEAAXH_N@Z"
.Ltmp141:
# %bb.37:
	leaq	.LBB4_38(%rip), %rax
	addq	$40, %rsp
	popq	%rbx
	popq	%rdi
	popq	%rsi
	popq	%r14
	popq	%r15
	popq	%rbp
	retq                                    # CATCHRET
	.seh_handlerdata
	.long	("$cppxdata$??$?6U?$char_traits@D@std@@@std@@YAAEAV?$basic_ostream@DU?$char_traits@D@std@@@0@AEAV10@PEBD@Z")@IMGREL
	.section	.text,"xr",discard,"??$?6U?$char_traits@D@std@@@std@@YAAEAV?$basic_ostream@DU?$char_traits@D@std@@@0@AEAV10@PEBD@Z"
	.seh_endproc
	.def	"?dtor$48@?0???$?6U?$char_traits@D@std@@@std@@YAAEAV?$basic_ostream@DU?$char_traits@D@std@@@0@AEAV10@PEBD@Z@4HA";
	.scl	3;
	.type	32;
	.endef
	.p2align	4, 0x90
"?dtor$48@?0???$?6U?$char_traits@D@std@@@std@@YAAEAV?$basic_ostream@DU?$char_traits@D@std@@@0@AEAV10@PEBD@Z@4HA":
.seh_proc "?dtor$48@?0???$?6U?$char_traits@D@std@@@std@@YAAEAV?$basic_ostream@DU?$char_traits@D@std@@@0@AEAV10@PEBD@Z@4HA"
.LBB4_48:
	movq	%rdx, 16(%rsp)
	pushq	%rbp
	.seh_pushreg %rbp
	pushq	%r15
	.seh_pushreg %r15
	pushq	%r14
	.seh_pushreg %r14
	pushq	%rsi
	.seh_pushreg %rsi
	pushq	%rdi
	.seh_pushreg %rdi
	pushq	%rbx
	.seh_pushreg %rbx
	subq	$40, %rsp
	.seh_stackalloc 40
	leaq	128(%rdx), %rbp
	.seh_endprologue
	callq	__std_terminate
	int3
	.seh_handlerdata
	.section	.text,"xr",discard,"??$?6U?$char_traits@D@std@@@std@@YAAEAV?$basic_ostream@DU?$char_traits@D@std@@@0@AEAV10@PEBD@Z"
	.seh_endproc
	.def	"?dtor$49@?0???$?6U?$char_traits@D@std@@@std@@YAAEAV?$basic_ostream@DU?$char_traits@D@std@@@0@AEAV10@PEBD@Z@4HA";
	.scl	3;
	.type	32;
	.endef
	.p2align	4, 0x90
"?dtor$49@?0???$?6U?$char_traits@D@std@@@std@@YAAEAV?$basic_ostream@DU?$char_traits@D@std@@@0@AEAV10@PEBD@Z@4HA":
.seh_proc "?dtor$49@?0???$?6U?$char_traits@D@std@@@std@@YAAEAV?$basic_ostream@DU?$char_traits@D@std@@@0@AEAV10@PEBD@Z@4HA"
.LBB4_49:
	movq	%rdx, 16(%rsp)
	pushq	%rbp
	.seh_pushreg %rbp
	pushq	%r15
	.seh_pushreg %r15
	pushq	%r14
	.seh_pushreg %r14
	pushq	%rsi
	.seh_pushreg %rsi
	pushq	%rdi
	.seh_pushreg %rdi
	pushq	%rbx
	.seh_pushreg %rbx
	subq	$40, %rsp
	.seh_stackalloc 40
	leaq	128(%rdx), %rbp
	.seh_endprologue
	callq	__std_terminate
	int3
	.seh_handlerdata
	.section	.text,"xr",discard,"??$?6U?$char_traits@D@std@@@std@@YAAEAV?$basic_ostream@DU?$char_traits@D@std@@@0@AEAV10@PEBD@Z"
	.seh_endproc
	.def	"?dtor$50@?0???$?6U?$char_traits@D@std@@@std@@YAAEAV?$basic_ostream@DU?$char_traits@D@std@@@0@AEAV10@PEBD@Z@4HA";
	.scl	3;
	.type	32;
	.endef
	.p2align	4, 0x90
"?dtor$50@?0???$?6U?$char_traits@D@std@@@std@@YAAEAV?$basic_ostream@DU?$char_traits@D@std@@@0@AEAV10@PEBD@Z@4HA":
.seh_proc "?dtor$50@?0???$?6U?$char_traits@D@std@@@std@@YAAEAV?$basic_ostream@DU?$char_traits@D@std@@@0@AEAV10@PEBD@Z@4HA"
.LBB4_50:
	movq	%rdx, 16(%rsp)
	pushq	%rbp
	.seh_pushreg %rbp
	pushq	%r15
	.seh_pushreg %r15
	pushq	%r14
	.seh_pushreg %r14
	pushq	%rsi
	.seh_pushreg %rsi
	pushq	%rdi
	.seh_pushreg %rdi
	pushq	%rbx
	.seh_pushreg %rbx
	subq	$40, %rsp
	.seh_stackalloc 40
	leaq	128(%rdx), %rbp
	.seh_endprologue
	leaq	-16(%rbp), %rcx
	callq	"??1sentry@?$basic_ostream@DU?$char_traits@D@std@@@std@@QEAA@XZ"
	nop
	addq	$40, %rsp
	popq	%rbx
	popq	%rdi
	popq	%rsi
	popq	%r14
	popq	%r15
	popq	%rbp
	retq                                    # CLEANUPRET
	.seh_handlerdata
	.section	.text,"xr",discard,"??$?6U?$char_traits@D@std@@@std@@YAAEAV?$basic_ostream@DU?$char_traits@D@std@@@0@AEAV10@PEBD@Z"
	.seh_endproc
	.def	"?dtor$51@?0???$?6U?$char_traits@D@std@@@std@@YAAEAV?$basic_ostream@DU?$char_traits@D@std@@@0@AEAV10@PEBD@Z@4HA";
	.scl	3;
	.type	32;
	.endef
	.p2align	4, 0x90
"?dtor$51@?0???$?6U?$char_traits@D@std@@@std@@YAAEAV?$basic_ostream@DU?$char_traits@D@std@@@0@AEAV10@PEBD@Z@4HA":
.seh_proc "?dtor$51@?0???$?6U?$char_traits@D@std@@@std@@YAAEAV?$basic_ostream@DU?$char_traits@D@std@@@0@AEAV10@PEBD@Z@4HA"
.LBB4_51:
	movq	%rdx, 16(%rsp)
	pushq	%rbp
	.seh_pushreg %rbp
	pushq	%r15
	.seh_pushreg %r15
	pushq	%r14
	.seh_pushreg %r14
	pushq	%rsi
	.seh_pushreg %rsi
	pushq	%rdi
	.seh_pushreg %rdi
	pushq	%rbx
	.seh_pushreg %rbx
	subq	$40, %rsp
	.seh_stackalloc 40
	leaq	128(%rdx), %rbp
	.seh_endprologue
	leaq	-16(%rbp), %rcx
	callq	"??1_Sentry_base@?$basic_ostream@DU?$char_traits@D@std@@@std@@QEAA@XZ"
	nop
	addq	$40, %rsp
	popq	%rbx
	popq	%rdi
	popq	%rsi
	popq	%r14
	popq	%r15
	popq	%rbp
	retq                                    # CLEANUPRET
.Lfunc_end4:
	.seh_handlerdata
	.section	.text,"xr",discard,"??$?6U?$char_traits@D@std@@@std@@YAAEAV?$basic_ostream@DU?$char_traits@D@std@@@0@AEAV10@PEBD@Z"
	.seh_endproc
	.section	.xdata,"dr",associative,"??$?6U?$char_traits@D@std@@@std@@YAAEAV?$basic_ostream@DU?$char_traits@D@std@@@0@AEAV10@PEBD@Z"
	.p2align	2, 0x0
"$cppxdata$??$?6U?$char_traits@D@std@@@std@@YAAEAV?$basic_ostream@DU?$char_traits@D@std@@@0@AEAV10@PEBD@Z":
	.long	429065506                       # MagicNumber
	.long	6                               # MaxState
	.long	("$stateUnwindMap$??$?6U?$char_traits@D@std@@@std@@YAAEAV?$basic_ostream@DU?$char_traits@D@std@@@0@AEAV10@PEBD@Z")@IMGREL # UnwindMap
	.long	1                               # NumTryBlocks
	.long	("$tryMap$??$?6U?$char_traits@D@std@@@std@@YAAEAV?$basic_ostream@DU?$char_traits@D@std@@@0@AEAV10@PEBD@Z")@IMGREL # TryBlockMap
	.long	8                               # IPMapEntries
	.long	("$ip2state$??$?6U?$char_traits@D@std@@@std@@YAAEAV?$basic_ostream@DU?$char_traits@D@std@@@0@AEAV10@PEBD@Z")@IMGREL # IPToStateXData
	.long	144                             # UnwindHelp
	.long	0                               # ESTypeList
	.long	1                               # EHFlags
"$stateUnwindMap$??$?6U?$char_traits@D@std@@@std@@YAAEAV?$basic_ostream@DU?$char_traits@D@std@@@0@AEAV10@PEBD@Z":
	.long	-1                              # ToState
	.long	"?dtor$51@?0???$?6U?$char_traits@D@std@@@std@@YAAEAV?$basic_ostream@DU?$char_traits@D@std@@@0@AEAV10@PEBD@Z@4HA"@IMGREL # Action
	.long	-1                              # ToState
	.long	"?dtor$48@?0???$?6U?$char_traits@D@std@@@std@@YAAEAV?$basic_ostream@DU?$char_traits@D@std@@@0@AEAV10@PEBD@Z@4HA"@IMGREL # Action
	.long	-1                              # ToState
	.long	"?dtor$49@?0???$?6U?$char_traits@D@std@@@std@@YAAEAV?$basic_ostream@DU?$char_traits@D@std@@@0@AEAV10@PEBD@Z@4HA"@IMGREL # Action
	.long	-1                              # ToState
	.long	"?dtor$50@?0???$?6U?$char_traits@D@std@@@std@@YAAEAV?$basic_ostream@DU?$char_traits@D@std@@@0@AEAV10@PEBD@Z@4HA"@IMGREL # Action
	.long	3                               # ToState
	.long	0                               # Action
	.long	3                               # ToState
	.long	0                               # Action
"$tryMap$??$?6U?$char_traits@D@std@@@std@@YAAEAV?$basic_ostream@DU?$char_traits@D@std@@@0@AEAV10@PEBD@Z":
	.long	4                               # TryLow
	.long	4                               # TryHigh
	.long	5                               # CatchHigh
	.long	1                               # NumCatches
	.long	("$handlerMap$0$??$?6U?$char_traits@D@std@@@std@@YAAEAV?$basic_ostream@DU?$char_traits@D@std@@@0@AEAV10@PEBD@Z")@IMGREL # HandlerArray
"$handlerMap$0$??$?6U?$char_traits@D@std@@@std@@YAAEAV?$basic_ostream@DU?$char_traits@D@std@@@0@AEAV10@PEBD@Z":
	.long	64                              # Adjectives
	.long	0                               # Type
	.long	0                               # CatchObjOffset
	.long	"?catch$36@?0???$?6U?$char_traits@D@std@@@std@@YAAEAV?$basic_ostream@DU?$char_traits@D@std@@@0@AEAV10@PEBD@Z@4HA"@IMGREL # Handler
	.long	104                             # ParentFrameOffset
"$ip2state$??$?6U?$char_traits@D@std@@@std@@YAAEAV?$basic_ostream@DU?$char_traits@D@std@@@0@AEAV10@PEBD@Z":
	.long	.Lfunc_begin4@IMGREL            # IP
	.long	-1                              # ToState
	.long	.Ltmp132@IMGREL+1               # IP
	.long	0                               # ToState
	.long	.Ltmp134@IMGREL+1               # IP
	.long	4                               # ToState
	.long	.Ltmp146@IMGREL+1               # IP
	.long	2                               # ToState
	.long	.Ltmp148@IMGREL+1               # IP
	.long	1                               # ToState
	.long	.Ltmp142@IMGREL+1               # IP
	.long	3                               # ToState
	.long	.Ltmp145@IMGREL+1               # IP
	.long	-1                              # ToState
	.long	"?catch$36@?0???$?6U?$char_traits@D@std@@@std@@YAAEAV?$basic_ostream@DU?$char_traits@D@std@@@0@AEAV10@PEBD@Z@4HA"@IMGREL # IP
	.long	5                               # ToState
	.section	.text,"xr",discard,"??$?6U?$char_traits@D@std@@@std@@YAAEAV?$basic_ostream@DU?$char_traits@D@std@@@0@AEAV10@PEBD@Z"
                                        # -- End function
	.def	"??$?5DU?$char_traits@D@std@@@std@@YAAEAV?$basic_istream@DU?$char_traits@D@std@@@0@AEAV10@AEAD@Z";
	.scl	2;
	.type	32;
	.endef
	.section	.text,"xr",discard,"??$?5DU?$char_traits@D@std@@@std@@YAAEAV?$basic_istream@DU?$char_traits@D@std@@@0@AEAV10@AEAD@Z"
	.globl	"??$?5DU?$char_traits@D@std@@@std@@YAAEAV?$basic_istream@DU?$char_traits@D@std@@@0@AEAV10@AEAD@Z" # -- Begin function ??$?5DU?$char_traits@D@std@@@std@@YAAEAV?$basic_istream@DU?$char_traits@D@std@@@0@AEAV10@AEAD@Z
	.p2align	4, 0x90
"??$?5DU?$char_traits@D@std@@@std@@YAAEAV?$basic_istream@DU?$char_traits@D@std@@@0@AEAV10@AEAD@Z": # @"??$?5DU?$char_traits@D@std@@@std@@YAAEAV?$basic_istream@DU?$char_traits@D@std@@@0@AEAV10@AEAD@Z"
.Lfunc_begin5:
.seh_proc "??$?5DU?$char_traits@D@std@@@std@@YAAEAV?$basic_istream@DU?$char_traits@D@std@@@0@AEAV10@AEAD@Z"
	.seh_handler __CxxFrameHandler3, @unwind, @except
# %bb.0:
	pushq	%rbp
	.seh_pushreg %rbp
	pushq	%rsi
	.seh_pushreg %rsi
	pushq	%rdi
	.seh_pushreg %rdi
	subq	$160, %rsp
	.seh_stackalloc 160
	leaq	128(%rsp), %rbp
	.seh_setframe %rbp, 128
	.seh_endprologue
	movq	$-2, 24(%rbp)
	movq	%rdx, %rsi
	movq	%rcx, %rdi
	movq	%rcx, -8(%rbp)
	movq	(%rcx), %rax
	movslq	4(%rax), %rax
	movq	72(%rcx,%rax), %rcx
	testq	%rcx, %rcx
	je	.LBB5_2
# %bb.1:
	movq	(%rcx), %rax
	callq	*8(%rax)
.LBB5_2:
	movq	-8(%rbp), %rcx
.Ltmp150:
	xorl	%edx, %edx
	callq	"?_Ipfx@?$basic_istream@DU?$char_traits@D@std@@@std@@QEAA_N_N@Z"
.Ltmp151:
# %bb.3:
	movb	%al, (%rbp)
	testb	%al, %al
	movq	%rdi, 8(%rbp)                   # 8-byte Spill
	je	.LBB5_4
# %bb.5:
	movl	$0, 20(%rbp)                    # 4-byte Folded Spill
	movq	(%rdi), %rax
	movslq	4(%rax), %rax
	movq	72(%rdi,%rax), %rcx
	movq	56(%rcx), %rax
	movq	(%rax), %rdx
	testq	%rdx, %rdx
	je	.LBB5_10
# %bb.6:
	movq	80(%rcx), %r8
	movl	(%r8), %r9d
	testl	%r9d, %r9d
	jle	.LBB5_10
# %bb.7:
	decl	%r9d
	movl	%r9d, (%r8)
	leaq	1(%rdx), %rcx
	movq	%rcx, (%rax)
	movzbl	(%rdx), %eax
	jmp	.LBB5_8
.LBB5_4:
	movl	$0, 20(%rbp)                    # 4-byte Folded Spill
	jmp	.LBB5_14
.LBB5_10:
	movq	(%rcx), %rax
.Ltmp152:
	callq	*56(%rax)
.Ltmp153:
.LBB5_8:
	cmpl	$-1, %eax
	je	.LBB5_9
# %bb.13:
	movb	%al, (%rsi)
	jmp	.LBB5_14
.LBB5_9:
	movl	$3, 20(%rbp)                    # 4-byte Folded Spill
.LBB5_14:                               # Block address taken
$ehgcr_5_14:
	movq	8(%rbp), %rsi                   # 8-byte Reload
	movq	(%rsi), %rax
	movslq	4(%rax), %rcx
	movl	16(%rsi,%rcx), %eax
	xorl	%edx, %edx
	cmpq	$0, 72(%rsi,%rcx)
	sete	%dl
	shll	$2, %edx
	andl	$23, %eax
	orl	20(%rbp), %eax                  # 4-byte Folded Reload
	orl	%edx, %eax
	movl	%eax, 16(%rsi,%rcx)
	andl	20(%rsi,%rcx), %eax
	jne	.LBB5_15
# %bb.18:
	movq	-8(%rbp), %rax
	movq	(%rax), %rcx
	movslq	4(%rcx), %rcx
	movq	72(%rax,%rcx), %rcx
	testq	%rcx, %rcx
	je	.LBB5_20
# %bb.19:
	movq	(%rcx), %rax
.Ltmp160:
	callq	*16(%rax)
.Ltmp161:
.LBB5_20:
	movq	%rsi, %rax
	addq	$160, %rsp
	popq	%rdi
	popq	%rsi
	popq	%rbp
	retq
.LBB5_15:
	testb	$2, %al
	leaq	"??_C@_0BF@OOHOMBOF@ios_base?3?3eofbit?5set?$AA@"(%rip), %rcx
	leaq	"??_C@_0BG@FMKFHCIL@ios_base?3?3failbit?5set?$AA@"(%rip), %rdx
	cmoveq	%rcx, %rdx
	testb	$4, %al
	leaq	"??_C@_0BF@PHHKMMFD@ios_base?3?3badbit?5set?$AA@"(%rip), %rsi
	cmoveq	%rdx, %rsi
	leaq	-48(%rbp), %rcx
	movl	$1, %edx
	callq	"?make_error_code@std@@YA?AVerror_code@1@W4io_errc@1@@Z"
	movups	-48(%rbp), %xmm0
	movaps	%xmm0, -32(%rbp)
.Ltmp156:
	leaq	-88(%rbp), %rcx
	leaq	-32(%rbp), %rdx
	movq	%rsi, %r8
	callq	"??0system_error@std@@QEAA@Verror_code@1@PEBD@Z"
.Ltmp157:
# %bb.16:
	leaq	"??_7failure@ios_base@std@@6B@"(%rip), %rax
	movq	%rax, -88(%rbp)
.Ltmp158:
	leaq	"_TI5?AVfailure@ios_base@std@@"(%rip), %rdx
	leaq	-88(%rbp), %rcx
	callq	_CxxThrowException
.Ltmp159:
# %bb.17:
	int3
	.seh_handlerdata
	.long	("$cppxdata$??$?5DU?$char_traits@D@std@@@std@@YAAEAV?$basic_istream@DU?$char_traits@D@std@@@0@AEAV10@AEAD@Z")@IMGREL
	.section	.text,"xr",discard,"??$?5DU?$char_traits@D@std@@@std@@YAAEAV?$basic_istream@DU?$char_traits@D@std@@@0@AEAV10@AEAD@Z"
	.seh_endproc
	.def	"?catch$11@?0???$?5DU?$char_traits@D@std@@@std@@YAAEAV?$basic_istream@DU?$char_traits@D@std@@@0@AEAV10@AEAD@Z@4HA";
	.scl	3;
	.type	32;
	.endef
	.p2align	4, 0x90
"?catch$11@?0???$?5DU?$char_traits@D@std@@@std@@YAAEAV?$basic_istream@DU?$char_traits@D@std@@@0@AEAV10@AEAD@Z@4HA":
.seh_proc "?catch$11@?0???$?5DU?$char_traits@D@std@@@std@@YAAEAV?$basic_istream@DU?$char_traits@D@std@@@0@AEAV10@AEAD@Z@4HA"
	.seh_handler __CxxFrameHandler3, @unwind, @except
.LBB5_11:
	movq	%rdx, 16(%rsp)
	pushq	%rbp
	.seh_pushreg %rbp
	pushq	%rsi
	.seh_pushreg %rsi
	pushq	%rdi
	.seh_pushreg %rdi
	subq	$32, %rsp
	.seh_stackalloc 32
	leaq	128(%rdx), %rbp
	.seh_endprologue
	movq	8(%rbp), %rdx                   # 8-byte Reload
	movq	(%rdx), %rax
	movslq	4(%rax), %rcx
	addq	%rdx, %rcx
.Ltmp154:
	movl	$4, %edx
	movb	$1, %r8b
	callq	"?setstate@?$basic_ios@DU?$char_traits@D@std@@@std@@QEAAXH_N@Z"
.Ltmp155:
# %bb.12:
	leaq	.LBB5_14(%rip), %rax
	addq	$32, %rsp
	popq	%rdi
	popq	%rsi
	popq	%rbp
	retq                                    # CATCHRET
	.seh_handlerdata
	.long	("$cppxdata$??$?5DU?$char_traits@D@std@@@std@@YAAEAV?$basic_istream@DU?$char_traits@D@std@@@0@AEAV10@AEAD@Z")@IMGREL
	.section	.text,"xr",discard,"??$?5DU?$char_traits@D@std@@@std@@YAAEAV?$basic_istream@DU?$char_traits@D@std@@@0@AEAV10@AEAD@Z"
	.seh_endproc
	.def	"?dtor$21@?0???$?5DU?$char_traits@D@std@@@std@@YAAEAV?$basic_istream@DU?$char_traits@D@std@@@0@AEAV10@AEAD@Z@4HA";
	.scl	3;
	.type	32;
	.endef
	.p2align	4, 0x90
"?dtor$21@?0???$?5DU?$char_traits@D@std@@@std@@YAAEAV?$basic_istream@DU?$char_traits@D@std@@@0@AEAV10@AEAD@Z@4HA":
.seh_proc "?dtor$21@?0???$?5DU?$char_traits@D@std@@@std@@YAAEAV?$basic_istream@DU?$char_traits@D@std@@@0@AEAV10@AEAD@Z@4HA"
.LBB5_21:
	movq	%rdx, 16(%rsp)
	pushq	%rbp
	.seh_pushreg %rbp
	pushq	%rsi
	.seh_pushreg %rsi
	pushq	%rdi
	.seh_pushreg %rdi
	subq	$32, %rsp
	.seh_stackalloc 32
	leaq	128(%rdx), %rbp
	.seh_endprologue
	leaq	-8(%rbp), %rcx
	callq	"??1_Sentry_base@?$basic_istream@DU?$char_traits@D@std@@@std@@QEAA@XZ"
	nop
	addq	$32, %rsp
	popq	%rdi
	popq	%rsi
	popq	%rbp
	retq                                    # CLEANUPRET
	.seh_handlerdata
	.section	.text,"xr",discard,"??$?5DU?$char_traits@D@std@@@std@@YAAEAV?$basic_istream@DU?$char_traits@D@std@@@0@AEAV10@AEAD@Z"
	.seh_endproc
	.def	"?dtor$22@?0???$?5DU?$char_traits@D@std@@@std@@YAAEAV?$basic_istream@DU?$char_traits@D@std@@@0@AEAV10@AEAD@Z@4HA";
	.scl	3;
	.type	32;
	.endef
	.p2align	4, 0x90
"?dtor$22@?0???$?5DU?$char_traits@D@std@@@std@@YAAEAV?$basic_istream@DU?$char_traits@D@std@@@0@AEAV10@AEAD@Z@4HA":
.seh_proc "?dtor$22@?0???$?5DU?$char_traits@D@std@@@std@@YAAEAV?$basic_istream@DU?$char_traits@D@std@@@0@AEAV10@AEAD@Z@4HA"
.LBB5_22:
	movq	%rdx, 16(%rsp)
	pushq	%rbp
	.seh_pushreg %rbp
	pushq	%rsi
	.seh_pushreg %rsi
	pushq	%rdi
	.seh_pushreg %rdi
	subq	$32, %rsp
	.seh_stackalloc 32
	leaq	128(%rdx), %rbp
	.seh_endprologue
	leaq	-8(%rbp), %rcx
	callq	"??1_Sentry_base@?$basic_istream@DU?$char_traits@D@std@@@std@@QEAA@XZ"
	nop
	addq	$32, %rsp
	popq	%rdi
	popq	%rsi
	popq	%rbp
	retq                                    # CLEANUPRET
	.seh_handlerdata
	.section	.text,"xr",discard,"??$?5DU?$char_traits@D@std@@@std@@YAAEAV?$basic_istream@DU?$char_traits@D@std@@@0@AEAV10@AEAD@Z"
	.seh_endproc
	.def	"?dtor$23@?0???$?5DU?$char_traits@D@std@@@std@@YAAEAV?$basic_istream@DU?$char_traits@D@std@@@0@AEAV10@AEAD@Z@4HA";
	.scl	3;
	.type	32;
	.endef
	.p2align	4, 0x90
"?dtor$23@?0???$?5DU?$char_traits@D@std@@@std@@YAAEAV?$basic_istream@DU?$char_traits@D@std@@@0@AEAV10@AEAD@Z@4HA":
.seh_proc "?dtor$23@?0???$?5DU?$char_traits@D@std@@@std@@YAAEAV?$basic_istream@DU?$char_traits@D@std@@@0@AEAV10@AEAD@Z@4HA"
.LBB5_23:
	movq	%rdx, 16(%rsp)
	pushq	%rbp
	.seh_pushreg %rbp
	pushq	%rsi
	.seh_pushreg %rsi
	pushq	%rdi
	.seh_pushreg %rdi
	subq	$32, %rsp
	.seh_stackalloc 32
	leaq	128(%rdx), %rbp
	.seh_endprologue
	callq	__std_terminate
	int3
.Lfunc_end5:
	.seh_handlerdata
	.section	.text,"xr",discard,"??$?5DU?$char_traits@D@std@@@std@@YAAEAV?$basic_istream@DU?$char_traits@D@std@@@0@AEAV10@AEAD@Z"
	.seh_endproc
	.section	.xdata,"dr",associative,"??$?5DU?$char_traits@D@std@@@std@@YAAEAV?$basic_istream@DU?$char_traits@D@std@@@0@AEAV10@AEAD@Z"
	.p2align	2, 0x0
"$cppxdata$??$?5DU?$char_traits@D@std@@@std@@YAAEAV?$basic_istream@DU?$char_traits@D@std@@@0@AEAV10@AEAD@Z":
	.long	429065506                       # MagicNumber
	.long	5                               # MaxState
	.long	("$stateUnwindMap$??$?5DU?$char_traits@D@std@@@std@@YAAEAV?$basic_istream@DU?$char_traits@D@std@@@0@AEAV10@AEAD@Z")@IMGREL # UnwindMap
	.long	1                               # NumTryBlocks
	.long	("$tryMap$??$?5DU?$char_traits@D@std@@@std@@YAAEAV?$basic_istream@DU?$char_traits@D@std@@@0@AEAV10@AEAD@Z")@IMGREL # TryBlockMap
	.long	7                               # IPMapEntries
	.long	("$ip2state$??$?5DU?$char_traits@D@std@@@std@@YAAEAV?$basic_istream@DU?$char_traits@D@std@@@0@AEAV10@AEAD@Z")@IMGREL # IPToStateXData
	.long	152                             # UnwindHelp
	.long	0                               # ESTypeList
	.long	1                               # EHFlags
"$stateUnwindMap$??$?5DU?$char_traits@D@std@@@std@@YAAEAV?$basic_istream@DU?$char_traits@D@std@@@0@AEAV10@AEAD@Z":
	.long	-1                              # ToState
	.long	"?dtor$22@?0???$?5DU?$char_traits@D@std@@@std@@YAAEAV?$basic_istream@DU?$char_traits@D@std@@@0@AEAV10@AEAD@Z@4HA"@IMGREL # Action
	.long	-1                              # ToState
	.long	"?dtor$23@?0???$?5DU?$char_traits@D@std@@@std@@YAAEAV?$basic_istream@DU?$char_traits@D@std@@@0@AEAV10@AEAD@Z@4HA"@IMGREL # Action
	.long	-1                              # ToState
	.long	"?dtor$21@?0???$?5DU?$char_traits@D@std@@@std@@YAAEAV?$basic_istream@DU?$char_traits@D@std@@@0@AEAV10@AEAD@Z@4HA"@IMGREL # Action
	.long	2                               # ToState
	.long	0                               # Action
	.long	2                               # ToState
	.long	0                               # Action
"$tryMap$??$?5DU?$char_traits@D@std@@@std@@YAAEAV?$basic_istream@DU?$char_traits@D@std@@@0@AEAV10@AEAD@Z":
	.long	3                               # TryLow
	.long	3                               # TryHigh
	.long	4                               # CatchHigh
	.long	1                               # NumCatches
	.long	("$handlerMap$0$??$?5DU?$char_traits@D@std@@@std@@YAAEAV?$basic_istream@DU?$char_traits@D@std@@@0@AEAV10@AEAD@Z")@IMGREL # HandlerArray
"$handlerMap$0$??$?5DU?$char_traits@D@std@@@std@@YAAEAV?$basic_istream@DU?$char_traits@D@std@@@0@AEAV10@AEAD@Z":
	.long	64                              # Adjectives
	.long	0                               # Type
	.long	0                               # CatchObjOffset
	.long	"?catch$11@?0???$?5DU?$char_traits@D@std@@@std@@YAAEAV?$basic_istream@DU?$char_traits@D@std@@@0@AEAV10@AEAD@Z@4HA"@IMGREL # Handler
	.long	72                              # ParentFrameOffset
"$ip2state$??$?5DU?$char_traits@D@std@@@std@@YAAEAV?$basic_istream@DU?$char_traits@D@std@@@0@AEAV10@AEAD@Z":
	.long	.Lfunc_begin5@IMGREL            # IP
	.long	-1                              # ToState
	.long	.Ltmp150@IMGREL+1               # IP
	.long	0                               # ToState
	.long	.Ltmp152@IMGREL+1               # IP
	.long	3                               # ToState
	.long	.Ltmp160@IMGREL+1               # IP
	.long	1                               # ToState
	.long	.Ltmp156@IMGREL+1               # IP
	.long	2                               # ToState
	.long	.Ltmp159@IMGREL+1               # IP
	.long	-1                              # ToState
	.long	"?catch$11@?0???$?5DU?$char_traits@D@std@@@std@@YAAEAV?$basic_istream@DU?$char_traits@D@std@@@0@AEAV10@AEAD@Z@4HA"@IMGREL # IP
	.long	4                               # ToState
	.section	.text,"xr",discard,"??$?5DU?$char_traits@D@std@@@std@@YAAEAV?$basic_istream@DU?$char_traits@D@std@@@0@AEAV10@AEAD@Z"
                                        # -- End function
	.def	"??1?$basic_string@DU?$char_traits@D@std@@V?$allocator@D@2@@std@@QEAA@XZ";
	.scl	2;
	.type	32;
	.endef
	.section	.text,"xr",discard,"??1?$basic_string@DU?$char_traits@D@std@@V?$allocator@D@2@@std@@QEAA@XZ"
	.globl	"??1?$basic_string@DU?$char_traits@D@std@@V?$allocator@D@2@@std@@QEAA@XZ" # -- Begin function ??1?$basic_string@DU?$char_traits@D@std@@V?$allocator@D@2@@std@@QEAA@XZ
	.p2align	4, 0x90
"??1?$basic_string@DU?$char_traits@D@std@@V?$allocator@D@2@@std@@QEAA@XZ": # @"??1?$basic_string@DU?$char_traits@D@std@@V?$allocator@D@2@@std@@QEAA@XZ"
.Lfunc_begin6:
.seh_proc "??1?$basic_string@DU?$char_traits@D@std@@V?$allocator@D@2@@std@@QEAA@XZ"
	.seh_handler __CxxFrameHandler3, @unwind, @except
# %bb.0:
	pushq	%rbp
	.seh_pushreg %rbp
	pushq	%rsi
	.seh_pushreg %rsi
	subq	$40, %rsp
	.seh_stackalloc 40
	leaq	32(%rsp), %rbp
	.seh_setframe %rbp, 32
	.seh_endprologue
	movq	$-2, (%rbp)
	movq	%rcx, %rsi
	movq	24(%rcx), %rax
	cmpq	$16, %rax
	jb	.LBB6_8
# %bb.1:
	movq	(%rsi), %rcx
	leaq	1(%rax), %rdx
	cmpq	$4096, %rdx                     # imm = 0x1000
	jb	.LBB6_7
# %bb.2:
	movq	-8(%rcx), %r8
	addq	$-8, %rcx
	subq	%r8, %rcx
	cmpq	$32, %rcx
	jae	.LBB6_3
# %bb.6:
	addq	$40, %rax
	movq	%rax, %rdx
	movq	%r8, %rcx
.LBB6_7:
	callq	"??3@YAXPEAX_K@Z"
.LBB6_8:
	movq	$0, 16(%rsi)
	movq	$15, 24(%rsi)
	movb	$0, (%rsi)
	addq	$40, %rsp
	popq	%rsi
	popq	%rbp
	retq
.LBB6_3:
.Ltmp162:
	callq	_invalid_parameter_noinfo_noreturn
.Ltmp163:
# %bb.4:
	int3
	.seh_handlerdata
	.long	("$cppxdata$??1?$basic_string@DU?$char_traits@D@std@@V?$allocator@D@2@@std@@QEAA@XZ")@IMGREL
	.section	.text,"xr",discard,"??1?$basic_string@DU?$char_traits@D@std@@V?$allocator@D@2@@std@@QEAA@XZ"
	.seh_endproc
	.def	"?dtor$5@?0???1?$basic_string@DU?$char_traits@D@std@@V?$allocator@D@2@@std@@QEAA@XZ@4HA";
	.scl	3;
	.type	32;
	.endef
	.p2align	4, 0x90
"?dtor$5@?0???1?$basic_string@DU?$char_traits@D@std@@V?$allocator@D@2@@std@@QEAA@XZ@4HA":
.seh_proc "?dtor$5@?0???1?$basic_string@DU?$char_traits@D@std@@V?$allocator@D@2@@std@@QEAA@XZ@4HA"
.LBB6_5:
	movq	%rdx, 16(%rsp)
	pushq	%rbp
	.seh_pushreg %rbp
	pushq	%rsi
	.seh_pushreg %rsi
	subq	$40, %rsp
	.seh_stackalloc 40
	leaq	32(%rdx), %rbp
	.seh_endprologue
	callq	__std_terminate
	int3
.Lfunc_end6:
	.seh_handlerdata
	.section	.text,"xr",discard,"??1?$basic_string@DU?$char_traits@D@std@@V?$allocator@D@2@@std@@QEAA@XZ"
	.seh_endproc
	.section	.xdata,"dr",associative,"??1?$basic_string@DU?$char_traits@D@std@@V?$allocator@D@2@@std@@QEAA@XZ"
	.p2align	2, 0x0
"$cppxdata$??1?$basic_string@DU?$char_traits@D@std@@V?$allocator@D@2@@std@@QEAA@XZ":
	.long	429065506                       # MagicNumber
	.long	1                               # MaxState
	.long	("$stateUnwindMap$??1?$basic_string@DU?$char_traits@D@std@@V?$allocator@D@2@@std@@QEAA@XZ")@IMGREL # UnwindMap
	.long	0                               # NumTryBlocks
	.long	0                               # TryBlockMap
	.long	3                               # IPMapEntries
	.long	("$ip2state$??1?$basic_string@DU?$char_traits@D@std@@V?$allocator@D@2@@std@@QEAA@XZ")@IMGREL # IPToStateXData
	.long	32                              # UnwindHelp
	.long	0                               # ESTypeList
	.long	1                               # EHFlags
"$stateUnwindMap$??1?$basic_string@DU?$char_traits@D@std@@V?$allocator@D@2@@std@@QEAA@XZ":
	.long	-1                              # ToState
	.long	"?dtor$5@?0???1?$basic_string@DU?$char_traits@D@std@@V?$allocator@D@2@@std@@QEAA@XZ@4HA"@IMGREL # Action
"$ip2state$??1?$basic_string@DU?$char_traits@D@std@@V?$allocator@D@2@@std@@QEAA@XZ":
	.long	.Lfunc_begin6@IMGREL            # IP
	.long	-1                              # ToState
	.long	.Ltmp162@IMGREL+1               # IP
	.long	0                               # ToState
	.long	.Ltmp163@IMGREL+1               # IP
	.long	-1                              # ToState
	.section	.text,"xr",discard,"??1?$basic_string@DU?$char_traits@D@std@@V?$allocator@D@2@@std@@QEAA@XZ"
                                        # -- End function
	.def	"?close@?$basic_fstream@DU?$char_traits@D@std@@@std@@QEAAXXZ";
	.scl	2;
	.type	32;
	.endef
	.section	.text,"xr",discard,"?close@?$basic_fstream@DU?$char_traits@D@std@@@std@@QEAAXXZ"
	.globl	"?close@?$basic_fstream@DU?$char_traits@D@std@@@std@@QEAAXXZ" # -- Begin function ?close@?$basic_fstream@DU?$char_traits@D@std@@@std@@QEAAXXZ
	.p2align	4, 0x90
"?close@?$basic_fstream@DU?$char_traits@D@std@@@std@@QEAAXXZ": # @"?close@?$basic_fstream@DU?$char_traits@D@std@@@std@@QEAAXXZ"
.seh_proc "?close@?$basic_fstream@DU?$char_traits@D@std@@@std@@QEAAXXZ"
# %bb.0:
	pushq	%rsi
	.seh_pushreg %rsi
	pushq	%rdi
	.seh_pushreg %rdi
	pushq	%rbx
	.seh_pushreg %rbx
	subq	$96, %rsp
	.seh_stackalloc 96
	.seh_endprologue
	movq	%rcx, %rsi
	cmpq	$0, 152(%rcx)
	je	.LBB7_1
# %bb.2:
	leaq	24(%rsi), %rcx
	callq	"?_Endwrite@?$basic_filebuf@DU?$char_traits@D@std@@@std@@IEAA_NXZ"
	movl	%eax, %ebx
	xorb	$1, %bl
	movq	152(%rsi), %rcx
	callq	fclose
	testl	%eax, %eax
	setne	%al
	orb	%bl, %al
	jmp	.LBB7_3
.LBB7_1:
	movb	$1, %al
.LBB7_3:
	movb	$0, 148(%rsi)
	movb	$0, 137(%rsi)
	leaq	32(%rsi), %rcx
	movq	%rcx, 48(%rsi)
	leaq	40(%rsi), %rcx
	movq	%rcx, 56(%rsi)
	leaq	64(%rsi), %rcx
	movq	%rcx, 80(%rsi)
	leaq	72(%rsi), %rcx
	movq	%rcx, 88(%rsi)
	leaq	96(%rsi), %rcx
	movq	%rcx, 104(%rsi)
	leaq	100(%rsi), %rcx
	movq	%rcx, 112(%rsi)
	movq	$0, 96(%rsi)
	xorps	%xmm0, %xmm0
	movups	%xmm0, 32(%rsi)
	movups	%xmm0, 64(%rsi)
	movq	$0, 152(%rsi)
	movq	"?_Stinit@?1??_Init@?$basic_filebuf@DU?$char_traits@D@std@@@std@@IEAAXPEAU_iobuf@@W4_Initfl@23@@Z@4U_Mbstatet@@A"(%rip), %rcx
	movq	%rcx, 140(%rsi)
	movq	$0, 128(%rsi)
	testb	%al, %al
	je	.LBB7_5
# %bb.4:
	movq	(%rsi), %rax
	movslq	4(%rax), %rcx
	movl	16(%rsi,%rcx), %eax
	xorl	%edx, %edx
	cmpq	$0, 72(%rsi,%rcx)
	sete	%dl
	shll	$2, %edx
	andl	$21, %eax
	orl	%edx, %eax
	orl	$2, %eax
	movl	%eax, 16(%rsi,%rcx)
	movl	20(%rsi,%rcx), %ecx
	andl	%ecx, %eax
	jne	.LBB7_6
.LBB7_5:
	addq	$96, %rsp
	popq	%rbx
	popq	%rdi
	popq	%rsi
	retq
.LBB7_6:
	testb	$2, %cl
	leaq	"??_C@_0BF@OOHOMBOF@ios_base?3?3eofbit?5set?$AA@"(%rip), %rcx
	leaq	"??_C@_0BG@FMKFHCIL@ios_base?3?3failbit?5set?$AA@"(%rip), %rdx
	cmoveq	%rcx, %rdx
	testb	$4, %al
	leaq	"??_C@_0BF@PHHKMMFD@ios_base?3?3badbit?5set?$AA@"(%rip), %rsi
	cmoveq	%rdx, %rsi
	leaq	40(%rsp), %rdi
	movq	%rdi, %rcx
	movl	$1, %edx
	callq	"?make_error_code@std@@YA?AVerror_code@1@W4io_errc@1@@Z"
	leaq	56(%rsp), %rbx
	movq	%rbx, %rcx
	movq	%rsi, %rdx
	movq	%rdi, %r8
	callq	"??0failure@ios_base@std@@QEAA@PEBDAEBVerror_code@2@@Z"
	leaq	"_TI5?AVfailure@ios_base@std@@"(%rip), %rdx
	movq	%rbx, %rcx
	callq	_CxxThrowException
	int3
	.seh_endproc
                                        # -- End function
	.def	"??_D?$basic_fstream@DU?$char_traits@D@std@@@std@@QEAAXXZ";
	.scl	2;
	.type	32;
	.endef
	.section	.text,"xr",discard,"??_D?$basic_fstream@DU?$char_traits@D@std@@@std@@QEAAXXZ"
	.globl	"??_D?$basic_fstream@DU?$char_traits@D@std@@@std@@QEAAXXZ" # -- Begin function ??_D?$basic_fstream@DU?$char_traits@D@std@@@std@@QEAAXXZ
	.p2align	4, 0x90
"??_D?$basic_fstream@DU?$char_traits@D@std@@@std@@QEAAXXZ": # @"??_D?$basic_fstream@DU?$char_traits@D@std@@@std@@QEAAXXZ"
.Lfunc_begin7:
.seh_proc "??_D?$basic_fstream@DU?$char_traits@D@std@@@std@@QEAAXXZ"
	.seh_handler __CxxFrameHandler3, @unwind, @except
# %bb.0:
	pushq	%rbp
	.seh_pushreg %rbp
	pushq	%rsi
	.seh_pushreg %rsi
	pushq	%rdi
	.seh_pushreg %rdi
	subq	$48, %rsp
	.seh_stackalloc 48
	leaq	48(%rsp), %rbp
	.seh_setframe %rbp, 48
	.seh_endprologue
	movq	$-2, -8(%rbp)
	movq	%rcx, %rsi
	leaq	184(%rcx), %rdi
	movq	(%rcx), %rax
	movslq	4(%rax), %rax
	leaq	"??_7?$basic_fstream@DU?$char_traits@D@std@@@std@@6B@"(%rip), %rcx
	movq	%rcx, (%rsi,%rax)
	movq	(%rsi), %rax
	movslq	4(%rax), %rax
	leal	-184(%rax), %ecx
	movl	%ecx, -4(%rsi,%rax)
	leaq	24(%rsi), %rcx
	callq	"??1?$basic_filebuf@DU?$char_traits@D@std@@@std@@UEAA@XZ"
	leaq	"??_7ios_base@std@@6B@"(%rip), %rax
	movq	%rax, 184(%rsi)
.Ltmp164:
	movq	%rdi, %rcx
	callq	"?_Ios_base_dtor@ios_base@std@@CAXPEAV12@@Z"
.Ltmp165:
# %bb.1:
	nop
	addq	$48, %rsp
	popq	%rdi
	popq	%rsi
	popq	%rbp
	retq
	.seh_handlerdata
	.long	("$cppxdata$??_D?$basic_fstream@DU?$char_traits@D@std@@@std@@QEAAXXZ")@IMGREL
	.section	.text,"xr",discard,"??_D?$basic_fstream@DU?$char_traits@D@std@@@std@@QEAAXXZ"
	.seh_endproc
	.def	"?dtor$2@?0???_D?$basic_fstream@DU?$char_traits@D@std@@@std@@QEAAXXZ@4HA";
	.scl	3;
	.type	32;
	.endef
	.p2align	4, 0x90
"?dtor$2@?0???_D?$basic_fstream@DU?$char_traits@D@std@@@std@@QEAAXXZ@4HA":
.seh_proc "?dtor$2@?0???_D?$basic_fstream@DU?$char_traits@D@std@@@std@@QEAAXXZ@4HA"
.LBB8_2:
	movq	%rdx, 16(%rsp)
	pushq	%rbp
	.seh_pushreg %rbp
	pushq	%rsi
	.seh_pushreg %rsi
	pushq	%rdi
	.seh_pushreg %rdi
	subq	$32, %rsp
	.seh_stackalloc 32
	leaq	48(%rdx), %rbp
	.seh_endprologue
	callq	__std_terminate
	int3
.Lfunc_end7:
	.seh_handlerdata
	.section	.text,"xr",discard,"??_D?$basic_fstream@DU?$char_traits@D@std@@@std@@QEAAXXZ"
	.seh_endproc
	.section	.xdata,"dr",associative,"??_D?$basic_fstream@DU?$char_traits@D@std@@@std@@QEAAXXZ"
	.p2align	2, 0x0
"$cppxdata$??_D?$basic_fstream@DU?$char_traits@D@std@@@std@@QEAAXXZ":
	.long	429065506                       # MagicNumber
	.long	1                               # MaxState
	.long	("$stateUnwindMap$??_D?$basic_fstream@DU?$char_traits@D@std@@@std@@QEAAXXZ")@IMGREL # UnwindMap
	.long	0                               # NumTryBlocks
	.long	0                               # TryBlockMap
	.long	3                               # IPMapEntries
	.long	("$ip2state$??_D?$basic_fstream@DU?$char_traits@D@std@@@std@@QEAAXXZ")@IMGREL # IPToStateXData
	.long	40                              # UnwindHelp
	.long	0                               # ESTypeList
	.long	1                               # EHFlags
"$stateUnwindMap$??_D?$basic_fstream@DU?$char_traits@D@std@@@std@@QEAAXXZ":
	.long	-1                              # ToState
	.long	"?dtor$2@?0???_D?$basic_fstream@DU?$char_traits@D@std@@@std@@QEAAXXZ@4HA"@IMGREL # Action
"$ip2state$??_D?$basic_fstream@DU?$char_traits@D@std@@@std@@QEAAXXZ":
	.long	.Lfunc_begin7@IMGREL            # IP
	.long	-1                              # ToState
	.long	.Ltmp164@IMGREL+1               # IP
	.long	0                               # ToState
	.long	.Ltmp165@IMGREL+1               # IP
	.long	-1                              # ToState
	.section	.text,"xr",discard,"??_D?$basic_fstream@DU?$char_traits@D@std@@@std@@QEAAXXZ"
                                        # -- End function
	.def	"??1?$_Tree@V?$_Tmap_traits@V?$basic_string@DU?$char_traits@D@std@@V?$allocator@D@2@@std@@V?$function@$$A6A?AV?$basic_string@DU?$char_traits@D@std@@V?$allocator@D@2@@std@@V12@@Z@2@U?$less@V?$basic_string@DU?$char_traits@D@std@@V?$allocator@D@2@@std@@@2@V?$allocator@U?$pair@$$CBV?$basic_string@DU?$char_traits@D@std@@V?$allocator@D@2@@std@@V?$function@$$A6A?AV?$basic_string@DU?$char_traits@D@std@@V?$allocator@D@2@@std@@V12@@Z@2@@std@@@2@$0A@@std@@@std@@QEAA@XZ";
	.scl	2;
	.type	32;
	.endef
	.section	.text,"xr",discard,"??1?$_Tree@V?$_Tmap_traits@V?$basic_string@DU?$char_traits@D@std@@V?$allocator@D@2@@std@@V?$function@$$A6A?AV?$basic_string@DU?$char_traits@D@std@@V?$allocator@D@2@@std@@V12@@Z@2@U?$less@V?$basic_string@DU?$char_traits@D@std@@V?$allocator@D@2@@std@@@2@V?$allocator@U?$pair@$$CBV?$basic_string@DU?$char_traits@D@std@@V?$allocator@D@2@@std@@V?$function@$$A6A?AV?$basic_string@DU?$char_traits@D@std@@V?$allocator@D@2@@std@@V12@@Z@2@@std@@@2@$0A@@std@@@std@@QEAA@XZ"
	.globl	"??1?$_Tree@V?$_Tmap_traits@V?$basic_string@DU?$char_traits@D@std@@V?$allocator@D@2@@std@@V?$function@$$A6A?AV?$basic_string@DU?$char_traits@D@std@@V?$allocator@D@2@@std@@V12@@Z@2@U?$less@V?$basic_string@DU?$char_traits@D@std@@V?$allocator@D@2@@std@@@2@V?$allocator@U?$pair@$$CBV?$basic_string@DU?$char_traits@D@std@@V?$allocator@D@2@@std@@V?$function@$$A6A?AV?$basic_string@DU?$char_traits@D@std@@V?$allocator@D@2@@std@@V12@@Z@2@@std@@@2@$0A@@std@@@std@@QEAA@XZ" # -- Begin function ??1?$_Tree@V?$_Tmap_traits@V?$basic_string@DU?$char_traits@D@std@@V?$allocator@D@2@@std@@V?$function@$$A6A?AV?$basic_string@DU?$char_traits@D@std@@V?$allocator@D@2@@std@@V12@@Z@2@U?$less@V?$basic_string@DU?$char_traits@D@std@@V?$allocator@D@2@@std@@@2@V?$allocator@U?$pair@$$CBV?$basic_string@DU?$char_traits@D@std@@V?$allocator@D@2@@std@@V?$function@$$A6A?AV?$basic_string@DU?$char_traits@D@std@@V?$allocator@D@2@@std@@V12@@Z@2@@std@@@2@$0A@@std@@@std@@QEAA@XZ
	.p2align	4, 0x90
"??1?$_Tree@V?$_Tmap_traits@V?$basic_string@DU?$char_traits@D@std@@V?$allocator@D@2@@std@@V?$function@$$A6A?AV?$basic_string@DU?$char_traits@D@std@@V?$allocator@D@2@@std@@V12@@Z@2@U?$less@V?$basic_string@DU?$char_traits@D@std@@V?$allocator@D@2@@std@@@2@V?$allocator@U?$pair@$$CBV?$basic_string@DU?$char_traits@D@std@@V?$allocator@D@2@@std@@V?$function@$$A6A?AV?$basic_string@DU?$char_traits@D@std@@V?$allocator@D@2@@std@@V12@@Z@2@@std@@@2@$0A@@std@@@std@@QEAA@XZ": # @"??1?$_Tree@V?$_Tmap_traits@V?$basic_string@DU?$char_traits@D@std@@V?$allocator@D@2@@std@@V?$function@$$A6A?AV?$basic_string@DU?$char_traits@D@std@@V?$allocator@D@2@@std@@V12@@Z@2@U?$less@V?$basic_string@DU?$char_traits@D@std@@V?$allocator@D@2@@std@@@2@V?$allocator@U?$pair@$$CBV?$basic_string@DU?$char_traits@D@std@@V?$allocator@D@2@@std@@V?$function@$$A6A?AV?$basic_string@DU?$char_traits@D@std@@V?$allocator@D@2@@std@@V12@@Z@2@@std@@@2@$0A@@std@@@std@@QEAA@XZ"
.seh_proc "??1?$_Tree@V?$_Tmap_traits@V?$basic_string@DU?$char_traits@D@std@@V?$allocator@D@2@@std@@V?$function@$$A6A?AV?$basic_string@DU?$char_traits@D@std@@V?$allocator@D@2@@std@@V12@@Z@2@U?$less@V?$basic_string@DU?$char_traits@D@std@@V?$allocator@D@2@@std@@@2@V?$allocator@U?$pair@$$CBV?$basic_string@DU?$char_traits@D@std@@V?$allocator@D@2@@std@@V?$function@$$A6A?AV?$basic_string@DU?$char_traits@D@std@@V?$allocator@D@2@@std@@V12@@Z@2@@std@@@2@$0A@@std@@@std@@QEAA@XZ"
# %bb.0:
	pushq	%rsi
	.seh_pushreg %rsi
	subq	$32, %rsp
	.seh_stackalloc 32
	.seh_endprologue
	movq	%rcx, %rsi
	movq	(%rcx), %rax
	movq	8(%rax), %r8
	movq	%rcx, %rdx
	callq	"??$_Erase_tree@V?$allocator@U?$_Tree_node@U?$pair@$$CBV?$basic_string@DU?$char_traits@D@std@@V?$allocator@D@2@@std@@V?$function@$$A6A?AV?$basic_string@DU?$char_traits@D@std@@V?$allocator@D@2@@std@@V12@@Z@2@@std@@PEAX@std@@@std@@@?$_Tree_val@U?$_Tree_simple_types@U?$pair@$$CBV?$basic_string@DU?$char_traits@D@std@@V?$allocator@D@2@@std@@V?$function@$$A6A?AV?$basic_string@DU?$char_traits@D@std@@V?$allocator@D@2@@std@@V12@@Z@2@@std@@@std@@@std@@QEAAXAEAV?$allocator@U?$_Tree_node@U?$pair@$$CBV?$basic_string@DU?$char_traits@D@std@@V?$allocator@D@2@@std@@V?$function@$$A6A?AV?$basic_string@DU?$char_traits@D@std@@V?$allocator@D@2@@std@@V12@@Z@2@@std@@PEAX@std@@@1@PEAU?$_Tree_node@U?$pair@$$CBV?$basic_string@DU?$char_traits@D@std@@V?$allocator@D@2@@std@@V?$function@$$A6A?AV?$basic_string@DU?$char_traits@D@std@@V?$allocator@D@2@@std@@V12@@Z@2@@std@@PEAX@1@@Z"
	movq	(%rsi), %rcx
	movl	$128, %edx
	addq	$32, %rsp
	popq	%rsi
	jmp	"??3@YAXPEAX_K@Z"               # TAILCALL
	.seh_endproc
                                        # -- End function
	.def	"??1?$_Tree@V?$_Tmap_traits@V?$basic_string@DU?$char_traits@D@std@@V?$allocator@D@2@@std@@V?$function@$$A6A_K_K@Z@2@U?$less@V?$basic_string@DU?$char_traits@D@std@@V?$allocator@D@2@@std@@@2@V?$allocator@U?$pair@$$CBV?$basic_string@DU?$char_traits@D@std@@V?$allocator@D@2@@std@@V?$function@$$A6A_K_K@Z@2@@std@@@2@$0A@@std@@@std@@QEAA@XZ";
	.scl	2;
	.type	32;
	.endef
	.section	.text,"xr",discard,"??1?$_Tree@V?$_Tmap_traits@V?$basic_string@DU?$char_traits@D@std@@V?$allocator@D@2@@std@@V?$function@$$A6A_K_K@Z@2@U?$less@V?$basic_string@DU?$char_traits@D@std@@V?$allocator@D@2@@std@@@2@V?$allocator@U?$pair@$$CBV?$basic_string@DU?$char_traits@D@std@@V?$allocator@D@2@@std@@V?$function@$$A6A_K_K@Z@2@@std@@@2@$0A@@std@@@std@@QEAA@XZ"
	.globl	"??1?$_Tree@V?$_Tmap_traits@V?$basic_string@DU?$char_traits@D@std@@V?$allocator@D@2@@std@@V?$function@$$A6A_K_K@Z@2@U?$less@V?$basic_string@DU?$char_traits@D@std@@V?$allocator@D@2@@std@@@2@V?$allocator@U?$pair@$$CBV?$basic_string@DU?$char_traits@D@std@@V?$allocator@D@2@@std@@V?$function@$$A6A_K_K@Z@2@@std@@@2@$0A@@std@@@std@@QEAA@XZ" # -- Begin function ??1?$_Tree@V?$_Tmap_traits@V?$basic_string@DU?$char_traits@D@std@@V?$allocator@D@2@@std@@V?$function@$$A6A_K_K@Z@2@U?$less@V?$basic_string@DU?$char_traits@D@std@@V?$allocator@D@2@@std@@@2@V?$allocator@U?$pair@$$CBV?$basic_string@DU?$char_traits@D@std@@V?$allocator@D@2@@std@@V?$function@$$A6A_K_K@Z@2@@std@@@2@$0A@@std@@@std@@QEAA@XZ
	.p2align	4, 0x90
"??1?$_Tree@V?$_Tmap_traits@V?$basic_string@DU?$char_traits@D@std@@V?$allocator@D@2@@std@@V?$function@$$A6A_K_K@Z@2@U?$less@V?$basic_string@DU?$char_traits@D@std@@V?$allocator@D@2@@std@@@2@V?$allocator@U?$pair@$$CBV?$basic_string@DU?$char_traits@D@std@@V?$allocator@D@2@@std@@V?$function@$$A6A_K_K@Z@2@@std@@@2@$0A@@std@@@std@@QEAA@XZ": # @"??1?$_Tree@V?$_Tmap_traits@V?$basic_string@DU?$char_traits@D@std@@V?$allocator@D@2@@std@@V?$function@$$A6A_K_K@Z@2@U?$less@V?$basic_string@DU?$char_traits@D@std@@V?$allocator@D@2@@std@@@2@V?$allocator@U?$pair@$$CBV?$basic_string@DU?$char_traits@D@std@@V?$allocator@D@2@@std@@V?$function@$$A6A_K_K@Z@2@@std@@@2@$0A@@std@@@std@@QEAA@XZ"
.seh_proc "??1?$_Tree@V?$_Tmap_traits@V?$basic_string@DU?$char_traits@D@std@@V?$allocator@D@2@@std@@V?$function@$$A6A_K_K@Z@2@U?$less@V?$basic_string@DU?$char_traits@D@std@@V?$allocator@D@2@@std@@@2@V?$allocator@U?$pair@$$CBV?$basic_string@DU?$char_traits@D@std@@V?$allocator@D@2@@std@@V?$function@$$A6A_K_K@Z@2@@std@@@2@$0A@@std@@@std@@QEAA@XZ"
# %bb.0:
	pushq	%rsi
	.seh_pushreg %rsi
	subq	$32, %rsp
	.seh_stackalloc 32
	.seh_endprologue
	movq	%rcx, %rsi
	movq	(%rcx), %rax
	movq	8(%rax), %r8
	movq	%rcx, %rdx
	callq	"??$_Erase_tree@V?$allocator@U?$_Tree_node@U?$pair@$$CBV?$basic_string@DU?$char_traits@D@std@@V?$allocator@D@2@@std@@V?$function@$$A6A_K_K@Z@2@@std@@PEAX@std@@@std@@@?$_Tree_val@U?$_Tree_simple_types@U?$pair@$$CBV?$basic_string@DU?$char_traits@D@std@@V?$allocator@D@2@@std@@V?$function@$$A6A_K_K@Z@2@@std@@@std@@@std@@QEAAXAEAV?$allocator@U?$_Tree_node@U?$pair@$$CBV?$basic_string@DU?$char_traits@D@std@@V?$allocator@D@2@@std@@V?$function@$$A6A_K_K@Z@2@@std@@PEAX@std@@@1@PEAU?$_Tree_node@U?$pair@$$CBV?$basic_string@DU?$char_traits@D@std@@V?$allocator@D@2@@std@@V?$function@$$A6A_K_K@Z@2@@std@@PEAX@1@@Z"
	movq	(%rsi), %rcx
	movl	$128, %edx
	addq	$32, %rsp
	popq	%rsi
	jmp	"??3@YAXPEAX_K@Z"               # TAILCALL
	.seh_endproc
                                        # -- End function
	.def	"??__E?id@?$num_get@DV?$istreambuf_iterator@DU?$char_traits@D@std@@@std@@@std@@2V0locale@2@A@@YAXXZ";
	.scl	2;
	.type	32;
	.endef
	.section	.text,"xr",discard,"??__E?id@?$num_get@DV?$istreambuf_iterator@DU?$char_traits@D@std@@@std@@@std@@2V0locale@2@A@@YAXXZ"
	.globl	"??__E?id@?$num_get@DV?$istreambuf_iterator@DU?$char_traits@D@std@@@std@@@std@@2V0locale@2@A@@YAXXZ" # -- Begin function ??__E?id@?$num_get@DV?$istreambuf_iterator@DU?$char_traits@D@std@@@std@@@std@@2V0locale@2@A@@YAXXZ
	.p2align	4, 0x90
"??__E?id@?$num_get@DV?$istreambuf_iterator@DU?$char_traits@D@std@@@std@@@std@@2V0locale@2@A@@YAXXZ": # @"??__E?id@?$num_get@DV?$istreambuf_iterator@DU?$char_traits@D@std@@@std@@@std@@2V0locale@2@A@@YAXXZ"
# %bb.0:
	movq	$0, "?id@?$num_get@DV?$istreambuf_iterator@DU?$char_traits@D@std@@@std@@@std@@2V0locale@2@A"(%rip)
	retq
                                        # -- End function
	.def	"??__E?id@?$numpunct@D@std@@2V0locale@2@A@@YAXXZ";
	.scl	2;
	.type	32;
	.endef
	.section	.text,"xr",discard,"??__E?id@?$numpunct@D@std@@2V0locale@2@A@@YAXXZ"
	.globl	"??__E?id@?$numpunct@D@std@@2V0locale@2@A@@YAXXZ" # -- Begin function ??__E?id@?$numpunct@D@std@@2V0locale@2@A@@YAXXZ
	.p2align	4, 0x90
"??__E?id@?$numpunct@D@std@@2V0locale@2@A@@YAXXZ": # @"??__E?id@?$numpunct@D@std@@2V0locale@2@A@@YAXXZ"
# %bb.0:
	movq	$0, "?id@?$numpunct@D@std@@2V0locale@2@A"(%rip)
	retq
                                        # -- End function
	.def	"??__E?id@?$num_put@DV?$ostreambuf_iterator@DU?$char_traits@D@std@@@std@@@std@@2V0locale@2@A@@YAXXZ";
	.scl	2;
	.type	32;
	.endef
	.section	.text,"xr",discard,"??__E?id@?$num_put@DV?$ostreambuf_iterator@DU?$char_traits@D@std@@@std@@@std@@2V0locale@2@A@@YAXXZ"
	.globl	"??__E?id@?$num_put@DV?$ostreambuf_iterator@DU?$char_traits@D@std@@@std@@@std@@2V0locale@2@A@@YAXXZ" # -- Begin function ??__E?id@?$num_put@DV?$ostreambuf_iterator@DU?$char_traits@D@std@@@std@@@std@@2V0locale@2@A@@YAXXZ
	.p2align	4, 0x90
"??__E?id@?$num_put@DV?$ostreambuf_iterator@DU?$char_traits@D@std@@@std@@@std@@2V0locale@2@A@@YAXXZ": # @"??__E?id@?$num_put@DV?$ostreambuf_iterator@DU?$char_traits@D@std@@@std@@@std@@2V0locale@2@A@@YAXXZ"
# %bb.0:
	movq	$0, "?id@?$num_put@DV?$ostreambuf_iterator@DU?$char_traits@D@std@@@std@@@std@@2V0locale@2@A"(%rip)
	retq
                                        # -- End function
	.def	"??__E?id@?$codecvt@DDU_Mbstatet@@@std@@2V0locale@2@A@@YAXXZ";
	.scl	2;
	.type	32;
	.endef
	.section	.text,"xr",discard,"??__E?id@?$codecvt@DDU_Mbstatet@@@std@@2V0locale@2@A@@YAXXZ"
	.globl	"??__E?id@?$codecvt@DDU_Mbstatet@@@std@@2V0locale@2@A@@YAXXZ" # -- Begin function ??__E?id@?$codecvt@DDU_Mbstatet@@@std@@2V0locale@2@A@@YAXXZ
	.p2align	4, 0x90
"??__E?id@?$codecvt@DDU_Mbstatet@@@std@@2V0locale@2@A@@YAXXZ": # @"??__E?id@?$codecvt@DDU_Mbstatet@@@std@@2V0locale@2@A@@YAXXZ"
# %bb.0:
	movq	$0, "?id@?$codecvt@DDU_Mbstatet@@@std@@2V0locale@2@A"(%rip)
	retq
                                        # -- End function
	.def	"?_Copy@?$_Func_impl_no_alloc@P6A_KI@Z_K_K@std@@EEBAPEAV?$_Func_base@_K_K@2@PEAX@Z";
	.scl	2;
	.type	32;
	.endef
	.section	.text,"xr",discard,"?_Copy@?$_Func_impl_no_alloc@P6A_KI@Z_K_K@std@@EEBAPEAV?$_Func_base@_K_K@2@PEAX@Z"
	.globl	"?_Copy@?$_Func_impl_no_alloc@P6A_KI@Z_K_K@std@@EEBAPEAV?$_Func_base@_K_K@2@PEAX@Z" # -- Begin function ?_Copy@?$_Func_impl_no_alloc@P6A_KI@Z_K_K@std@@EEBAPEAV?$_Func_base@_K_K@2@PEAX@Z
	.p2align	4, 0x90
"?_Copy@?$_Func_impl_no_alloc@P6A_KI@Z_K_K@std@@EEBAPEAV?$_Func_base@_K_K@2@PEAX@Z": # @"?_Copy@?$_Func_impl_no_alloc@P6A_KI@Z_K_K@std@@EEBAPEAV?$_Func_base@_K_K@2@PEAX@Z"
# %bb.0:
	movq	%rdx, %rax
	leaq	"??_7?$_Func_impl_no_alloc@P6A_KI@Z_K_K@std@@6B@"(%rip), %rdx
	movq	%rdx, (%rax)
	movq	8(%rcx), %rcx
	movq	%rcx, 8(%rax)
	retq
                                        # -- End function
	.def	"?_Move@?$_Func_impl_no_alloc@P6A_KI@Z_K_K@std@@EEAAPEAV?$_Func_base@_K_K@2@PEAX@Z";
	.scl	2;
	.type	32;
	.endef
	.section	.text,"xr",discard,"?_Move@?$_Func_impl_no_alloc@P6A_KI@Z_K_K@std@@EEAAPEAV?$_Func_base@_K_K@2@PEAX@Z"
	.globl	"?_Move@?$_Func_impl_no_alloc@P6A_KI@Z_K_K@std@@EEAAPEAV?$_Func_base@_K_K@2@PEAX@Z" # -- Begin function ?_Move@?$_Func_impl_no_alloc@P6A_KI@Z_K_K@std@@EEAAPEAV?$_Func_base@_K_K@2@PEAX@Z
	.p2align	4, 0x90
"?_Move@?$_Func_impl_no_alloc@P6A_KI@Z_K_K@std@@EEAAPEAV?$_Func_base@_K_K@2@PEAX@Z": # @"?_Move@?$_Func_impl_no_alloc@P6A_KI@Z_K_K@std@@EEAAPEAV?$_Func_base@_K_K@2@PEAX@Z"
# %bb.0:
	movq	%rdx, %rax
	leaq	"??_7?$_Func_impl_no_alloc@P6A_KI@Z_K_K@std@@6B@"(%rip), %rdx
	movq	%rdx, (%rax)
	movq	8(%rcx), %rcx
	movq	%rcx, 8(%rax)
	retq
                                        # -- End function
	.def	"?_Do_call@?$_Func_impl_no_alloc@P6A_KI@Z_K_K@std@@EEAA_K$$QEA_K@Z";
	.scl	2;
	.type	32;
	.endef
	.section	.text,"xr",discard,"?_Do_call@?$_Func_impl_no_alloc@P6A_KI@Z_K_K@std@@EEAA_K$$QEA_K@Z"
	.globl	"?_Do_call@?$_Func_impl_no_alloc@P6A_KI@Z_K_K@std@@EEAA_K$$QEA_K@Z" # -- Begin function ?_Do_call@?$_Func_impl_no_alloc@P6A_KI@Z_K_K@std@@EEAA_K$$QEA_K@Z
	.p2align	4, 0x90
"?_Do_call@?$_Func_impl_no_alloc@P6A_KI@Z_K_K@std@@EEAA_K$$QEA_K@Z": # @"?_Do_call@?$_Func_impl_no_alloc@P6A_KI@Z_K_K@std@@EEAA_K$$QEA_K@Z"
# %bb.0:
	movq	%rcx, %rax
	movl	(%rdx), %ecx
	rex64 jmpq	*8(%rax)                # TAILCALL
                                        # -- End function
	.def	"?_Target_type@?$_Func_impl_no_alloc@P6A_KI@Z_K_K@std@@EEBAAEBVtype_info@@XZ";
	.scl	2;
	.type	32;
	.endef
	.section	.text,"xr",discard,"?_Target_type@?$_Func_impl_no_alloc@P6A_KI@Z_K_K@std@@EEBAAEBVtype_info@@XZ"
	.globl	"?_Target_type@?$_Func_impl_no_alloc@P6A_KI@Z_K_K@std@@EEBAAEBVtype_info@@XZ" # -- Begin function ?_Target_type@?$_Func_impl_no_alloc@P6A_KI@Z_K_K@std@@EEBAAEBVtype_info@@XZ
	.p2align	4, 0x90
"?_Target_type@?$_Func_impl_no_alloc@P6A_KI@Z_K_K@std@@EEBAAEBVtype_info@@XZ": # @"?_Target_type@?$_Func_impl_no_alloc@P6A_KI@Z_K_K@std@@EEBAAEBVtype_info@@XZ"
# %bb.0:
	leaq	"??_R0P6A_KI@Z@8"(%rip), %rax
	retq
                                        # -- End function
	.def	"?_Delete_this@?$_Func_impl_no_alloc@P6A_KI@Z_K_K@std@@EEAAX_N@Z";
	.scl	2;
	.type	32;
	.endef
	.section	.text,"xr",discard,"?_Delete_this@?$_Func_impl_no_alloc@P6A_KI@Z_K_K@std@@EEAAX_N@Z"
	.globl	"?_Delete_this@?$_Func_impl_no_alloc@P6A_KI@Z_K_K@std@@EEAAX_N@Z" # -- Begin function ?_Delete_this@?$_Func_impl_no_alloc@P6A_KI@Z_K_K@std@@EEAAX_N@Z
	.p2align	4, 0x90
"?_Delete_this@?$_Func_impl_no_alloc@P6A_KI@Z_K_K@std@@EEAAX_N@Z": # @"?_Delete_this@?$_Func_impl_no_alloc@P6A_KI@Z_K_K@std@@EEAAX_N@Z"
# %bb.0:
	testb	%dl, %dl
	je	.LBB19_1
# %bb.2:
	movl	$16, %edx
	jmp	"??3@YAXPEAX_K@Z"               # TAILCALL
.LBB19_1:
	retq
                                        # -- End function
	.def	"?_Get@?$_Func_impl_no_alloc@P6A_KI@Z_K_K@std@@EEBAPEBXXZ";
	.scl	2;
	.type	32;
	.endef
	.section	.text,"xr",discard,"?_Get@?$_Func_impl_no_alloc@P6A_KI@Z_K_K@std@@EEBAPEBXXZ"
	.globl	"?_Get@?$_Func_impl_no_alloc@P6A_KI@Z_K_K@std@@EEBAPEBXXZ" # -- Begin function ?_Get@?$_Func_impl_no_alloc@P6A_KI@Z_K_K@std@@EEBAPEBXXZ
	.p2align	4, 0x90
"?_Get@?$_Func_impl_no_alloc@P6A_KI@Z_K_K@std@@EEBAPEBXXZ": # @"?_Get@?$_Func_impl_no_alloc@P6A_KI@Z_K_K@std@@EEBAPEBXXZ"
# %bb.0:
	leaq	8(%rcx), %rax
	retq
                                        # -- End function
	.def	"?_Copy@?$_Func_impl_no_alloc@V?$_Binder@U_Unforced@std@@A6A_KI_K0@ZAEBU?$_Ph@$00@2@HH@std@@_K_K@std@@EEBAPEAV?$_Func_base@_K_K@2@PEAX@Z";
	.scl	2;
	.type	32;
	.endef
	.section	.text,"xr",discard,"?_Copy@?$_Func_impl_no_alloc@V?$_Binder@U_Unforced@std@@A6A_KI_K0@ZAEBU?$_Ph@$00@2@HH@std@@_K_K@std@@EEBAPEAV?$_Func_base@_K_K@2@PEAX@Z"
	.globl	"?_Copy@?$_Func_impl_no_alloc@V?$_Binder@U_Unforced@std@@A6A_KI_K0@ZAEBU?$_Ph@$00@2@HH@std@@_K_K@std@@EEBAPEAV?$_Func_base@_K_K@2@PEAX@Z" # -- Begin function ?_Copy@?$_Func_impl_no_alloc@V?$_Binder@U_Unforced@std@@A6A_KI_K0@ZAEBU?$_Ph@$00@2@HH@std@@_K_K@std@@EEBAPEAV?$_Func_base@_K_K@2@PEAX@Z
	.p2align	4, 0x90
"?_Copy@?$_Func_impl_no_alloc@V?$_Binder@U_Unforced@std@@A6A_KI_K0@ZAEBU?$_Ph@$00@2@HH@std@@_K_K@std@@EEBAPEAV?$_Func_base@_K_K@2@PEAX@Z": # @"?_Copy@?$_Func_impl_no_alloc@V?$_Binder@U_Unforced@std@@A6A_KI_K0@ZAEBU?$_Ph@$00@2@HH@std@@_K_K@std@@EEBAPEAV?$_Func_base@_K_K@2@PEAX@Z"
# %bb.0:
	movq	%rdx, %rax
	leaq	"??_7?$_Func_impl_no_alloc@V?$_Binder@U_Unforced@std@@A6A_KI_K0@ZAEBU?$_Ph@$00@2@HH@std@@_K_K@std@@6B@"(%rip), %rdx
	movq	%rdx, (%rax)
	movq	8(%rcx), %rdx
	movq	%rdx, 8(%rax)
	movl	16(%rcx), %edx
	movl	%edx, 16(%rax)
	movl	20(%rcx), %edx
	movl	%edx, 20(%rax)
	movzbl	24(%rcx), %ecx
	movb	%cl, 24(%rax)
	retq
                                        # -- End function
	.def	"?_Move@?$_Func_impl_no_alloc@V?$_Binder@U_Unforced@std@@A6A_KI_K0@ZAEBU?$_Ph@$00@2@HH@std@@_K_K@std@@EEAAPEAV?$_Func_base@_K_K@2@PEAX@Z";
	.scl	2;
	.type	32;
	.endef
	.section	.text,"xr",discard,"?_Move@?$_Func_impl_no_alloc@V?$_Binder@U_Unforced@std@@A6A_KI_K0@ZAEBU?$_Ph@$00@2@HH@std@@_K_K@std@@EEAAPEAV?$_Func_base@_K_K@2@PEAX@Z"
	.globl	"?_Move@?$_Func_impl_no_alloc@V?$_Binder@U_Unforced@std@@A6A_KI_K0@ZAEBU?$_Ph@$00@2@HH@std@@_K_K@std@@EEAAPEAV?$_Func_base@_K_K@2@PEAX@Z" # -- Begin function ?_Move@?$_Func_impl_no_alloc@V?$_Binder@U_Unforced@std@@A6A_KI_K0@ZAEBU?$_Ph@$00@2@HH@std@@_K_K@std@@EEAAPEAV?$_Func_base@_K_K@2@PEAX@Z
	.p2align	4, 0x90
"?_Move@?$_Func_impl_no_alloc@V?$_Binder@U_Unforced@std@@A6A_KI_K0@ZAEBU?$_Ph@$00@2@HH@std@@_K_K@std@@EEAAPEAV?$_Func_base@_K_K@2@PEAX@Z": # @"?_Move@?$_Func_impl_no_alloc@V?$_Binder@U_Unforced@std@@A6A_KI_K0@ZAEBU?$_Ph@$00@2@HH@std@@_K_K@std@@EEAAPEAV?$_Func_base@_K_K@2@PEAX@Z"
# %bb.0:
	movq	%rdx, %rax
	leaq	"??_7?$_Func_impl_no_alloc@V?$_Binder@U_Unforced@std@@A6A_KI_K0@ZAEBU?$_Ph@$00@2@HH@std@@_K_K@std@@6B@"(%rip), %rdx
	movq	%rdx, (%rax)
	movq	8(%rcx), %rdx
	movq	%rdx, 8(%rax)
	movl	16(%rcx), %edx
	movl	%edx, 16(%rax)
	movl	20(%rcx), %edx
	movl	%edx, 20(%rax)
	movzbl	24(%rcx), %ecx
	movb	%cl, 24(%rax)
	retq
                                        # -- End function
	.def	"?_Do_call@?$_Func_impl_no_alloc@V?$_Binder@U_Unforced@std@@A6A_KI_K0@ZAEBU?$_Ph@$00@2@HH@std@@_K_K@std@@EEAA_K$$QEA_K@Z";
	.scl	2;
	.type	32;
	.endef
	.section	.text,"xr",discard,"?_Do_call@?$_Func_impl_no_alloc@V?$_Binder@U_Unforced@std@@A6A_KI_K0@ZAEBU?$_Ph@$00@2@HH@std@@_K_K@std@@EEAA_K$$QEA_K@Z"
	.globl	"?_Do_call@?$_Func_impl_no_alloc@V?$_Binder@U_Unforced@std@@A6A_KI_K0@ZAEBU?$_Ph@$00@2@HH@std@@_K_K@std@@EEAA_K$$QEA_K@Z" # -- Begin function ?_Do_call@?$_Func_impl_no_alloc@V?$_Binder@U_Unforced@std@@A6A_KI_K0@ZAEBU?$_Ph@$00@2@HH@std@@_K_K@std@@EEAA_K$$QEA_K@Z
	.p2align	4, 0x90
"?_Do_call@?$_Func_impl_no_alloc@V?$_Binder@U_Unforced@std@@A6A_KI_K0@ZAEBU?$_Ph@$00@2@HH@std@@_K_K@std@@EEAA_K$$QEA_K@Z": # @"?_Do_call@?$_Func_impl_no_alloc@V?$_Binder@U_Unforced@std@@A6A_KI_K0@ZAEBU?$_Ph@$00@2@HH@std@@_K_K@std@@EEAA_K$$QEA_K@Z"
# %bb.0:
	movq	8(%rcx), %r9
	movslq	16(%rcx), %r8
	movslq	20(%rcx), %rax
	movl	(%rdx), %ecx
	movq	%rax, %rdx
	rex64 jmpq	*%r9                    # TAILCALL
                                        # -- End function
	.def	"?_Target_type@?$_Func_impl_no_alloc@V?$_Binder@U_Unforced@std@@A6A_KI_K0@ZAEBU?$_Ph@$00@2@HH@std@@_K_K@std@@EEBAAEBVtype_info@@XZ";
	.scl	2;
	.type	32;
	.endef
	.section	.text,"xr",discard,"?_Target_type@?$_Func_impl_no_alloc@V?$_Binder@U_Unforced@std@@A6A_KI_K0@ZAEBU?$_Ph@$00@2@HH@std@@_K_K@std@@EEBAAEBVtype_info@@XZ"
	.globl	"?_Target_type@?$_Func_impl_no_alloc@V?$_Binder@U_Unforced@std@@A6A_KI_K0@ZAEBU?$_Ph@$00@2@HH@std@@_K_K@std@@EEBAAEBVtype_info@@XZ" # -- Begin function ?_Target_type@?$_Func_impl_no_alloc@V?$_Binder@U_Unforced@std@@A6A_KI_K0@ZAEBU?$_Ph@$00@2@HH@std@@_K_K@std@@EEBAAEBVtype_info@@XZ
	.p2align	4, 0x90
"?_Target_type@?$_Func_impl_no_alloc@V?$_Binder@U_Unforced@std@@A6A_KI_K0@ZAEBU?$_Ph@$00@2@HH@std@@_K_K@std@@EEBAAEBVtype_info@@XZ": # @"?_Target_type@?$_Func_impl_no_alloc@V?$_Binder@U_Unforced@std@@A6A_KI_K0@ZAEBU?$_Ph@$00@2@HH@std@@_K_K@std@@EEBAAEBVtype_info@@XZ"
# %bb.0:
	leaq	"??_R0?AV?$_Binder@U_Unforced@std@@A6A_KI_K0@ZAEBU?$_Ph@$00@2@HH@std@@@8"(%rip), %rax
	retq
                                        # -- End function
	.def	"?_Delete_this@?$_Func_impl_no_alloc@V?$_Binder@U_Unforced@std@@A6A_KI_K0@ZAEBU?$_Ph@$00@2@HH@std@@_K_K@std@@EEAAX_N@Z";
	.scl	2;
	.type	32;
	.endef
	.section	.text,"xr",discard,"?_Delete_this@?$_Func_impl_no_alloc@V?$_Binder@U_Unforced@std@@A6A_KI_K0@ZAEBU?$_Ph@$00@2@HH@std@@_K_K@std@@EEAAX_N@Z"
	.globl	"?_Delete_this@?$_Func_impl_no_alloc@V?$_Binder@U_Unforced@std@@A6A_KI_K0@ZAEBU?$_Ph@$00@2@HH@std@@_K_K@std@@EEAAX_N@Z" # -- Begin function ?_Delete_this@?$_Func_impl_no_alloc@V?$_Binder@U_Unforced@std@@A6A_KI_K0@ZAEBU?$_Ph@$00@2@HH@std@@_K_K@std@@EEAAX_N@Z
	.p2align	4, 0x90
"?_Delete_this@?$_Func_impl_no_alloc@V?$_Binder@U_Unforced@std@@A6A_KI_K0@ZAEBU?$_Ph@$00@2@HH@std@@_K_K@std@@EEAAX_N@Z": # @"?_Delete_this@?$_Func_impl_no_alloc@V?$_Binder@U_Unforced@std@@A6A_KI_K0@ZAEBU?$_Ph@$00@2@HH@std@@_K_K@std@@EEAAX_N@Z"
# %bb.0:
	testb	%dl, %dl
	je	.LBB25_1
# %bb.2:
	movl	$32, %edx
	jmp	"??3@YAXPEAX_K@Z"               # TAILCALL
.LBB25_1:
	retq
                                        # -- End function
	.def	"?_Get@?$_Func_impl_no_alloc@V?$_Binder@U_Unforced@std@@A6A_KI_K0@ZAEBU?$_Ph@$00@2@HH@std@@_K_K@std@@EEBAPEBXXZ";
	.scl	2;
	.type	32;
	.endef
	.section	.text,"xr",discard,"?_Get@?$_Func_impl_no_alloc@V?$_Binder@U_Unforced@std@@A6A_KI_K0@ZAEBU?$_Ph@$00@2@HH@std@@_K_K@std@@EEBAPEBXXZ"
	.globl	"?_Get@?$_Func_impl_no_alloc@V?$_Binder@U_Unforced@std@@A6A_KI_K0@ZAEBU?$_Ph@$00@2@HH@std@@_K_K@std@@EEBAPEBXXZ" # -- Begin function ?_Get@?$_Func_impl_no_alloc@V?$_Binder@U_Unforced@std@@A6A_KI_K0@ZAEBU?$_Ph@$00@2@HH@std@@_K_K@std@@EEBAPEBXXZ
	.p2align	4, 0x90
"?_Get@?$_Func_impl_no_alloc@V?$_Binder@U_Unforced@std@@A6A_KI_K0@ZAEBU?$_Ph@$00@2@HH@std@@_K_K@std@@EEBAPEBXXZ": # @"?_Get@?$_Func_impl_no_alloc@V?$_Binder@U_Unforced@std@@A6A_KI_K0@ZAEBU?$_Ph@$00@2@HH@std@@_K_K@std@@EEBAPEBXXZ"
# %bb.0:
	leaq	8(%rcx), %rax
	retq
                                        # -- End function
	.def	"?_Copy@?$_Func_impl_no_alloc@P6A_K_K@Z_K_K@std@@EEBAPEAV?$_Func_base@_K_K@2@PEAX@Z";
	.scl	2;
	.type	32;
	.endef
	.section	.text,"xr",discard,"?_Copy@?$_Func_impl_no_alloc@P6A_K_K@Z_K_K@std@@EEBAPEAV?$_Func_base@_K_K@2@PEAX@Z"
	.globl	"?_Copy@?$_Func_impl_no_alloc@P6A_K_K@Z_K_K@std@@EEBAPEAV?$_Func_base@_K_K@2@PEAX@Z" # -- Begin function ?_Copy@?$_Func_impl_no_alloc@P6A_K_K@Z_K_K@std@@EEBAPEAV?$_Func_base@_K_K@2@PEAX@Z
	.p2align	4, 0x90
"?_Copy@?$_Func_impl_no_alloc@P6A_K_K@Z_K_K@std@@EEBAPEAV?$_Func_base@_K_K@2@PEAX@Z": # @"?_Copy@?$_Func_impl_no_alloc@P6A_K_K@Z_K_K@std@@EEBAPEAV?$_Func_base@_K_K@2@PEAX@Z"
# %bb.0:
	movq	%rdx, %rax
	leaq	"??_7?$_Func_impl_no_alloc@P6A_K_K@Z_K_K@std@@6B@"(%rip), %rdx
	movq	%rdx, (%rax)
	movq	8(%rcx), %rcx
	movq	%rcx, 8(%rax)
	retq
                                        # -- End function
	.def	"?_Move@?$_Func_impl_no_alloc@P6A_K_K@Z_K_K@std@@EEAAPEAV?$_Func_base@_K_K@2@PEAX@Z";
	.scl	2;
	.type	32;
	.endef
	.section	.text,"xr",discard,"?_Move@?$_Func_impl_no_alloc@P6A_K_K@Z_K_K@std@@EEAAPEAV?$_Func_base@_K_K@2@PEAX@Z"
	.globl	"?_Move@?$_Func_impl_no_alloc@P6A_K_K@Z_K_K@std@@EEAAPEAV?$_Func_base@_K_K@2@PEAX@Z" # -- Begin function ?_Move@?$_Func_impl_no_alloc@P6A_K_K@Z_K_K@std@@EEAAPEAV?$_Func_base@_K_K@2@PEAX@Z
	.p2align	4, 0x90
"?_Move@?$_Func_impl_no_alloc@P6A_K_K@Z_K_K@std@@EEAAPEAV?$_Func_base@_K_K@2@PEAX@Z": # @"?_Move@?$_Func_impl_no_alloc@P6A_K_K@Z_K_K@std@@EEAAPEAV?$_Func_base@_K_K@2@PEAX@Z"
# %bb.0:
	movq	%rdx, %rax
	leaq	"??_7?$_Func_impl_no_alloc@P6A_K_K@Z_K_K@std@@6B@"(%rip), %rdx
	movq	%rdx, (%rax)
	movq	8(%rcx), %rcx
	movq	%rcx, 8(%rax)
	retq
                                        # -- End function
	.def	"?_Do_call@?$_Func_impl_no_alloc@P6A_K_K@Z_K_K@std@@EEAA_K$$QEA_K@Z";
	.scl	2;
	.type	32;
	.endef
	.section	.text,"xr",discard,"?_Do_call@?$_Func_impl_no_alloc@P6A_K_K@Z_K_K@std@@EEAA_K$$QEA_K@Z"
	.globl	"?_Do_call@?$_Func_impl_no_alloc@P6A_K_K@Z_K_K@std@@EEAA_K$$QEA_K@Z" # -- Begin function ?_Do_call@?$_Func_impl_no_alloc@P6A_K_K@Z_K_K@std@@EEAA_K$$QEA_K@Z
	.p2align	4, 0x90
"?_Do_call@?$_Func_impl_no_alloc@P6A_K_K@Z_K_K@std@@EEAA_K$$QEA_K@Z": # @"?_Do_call@?$_Func_impl_no_alloc@P6A_K_K@Z_K_K@std@@EEAA_K$$QEA_K@Z"
# %bb.0:
	movq	%rcx, %rax
	movq	(%rdx), %rcx
	rex64 jmpq	*8(%rax)                # TAILCALL
                                        # -- End function
	.def	"?_Target_type@?$_Func_impl_no_alloc@P6A_K_K@Z_K_K@std@@EEBAAEBVtype_info@@XZ";
	.scl	2;
	.type	32;
	.endef
	.section	.text,"xr",discard,"?_Target_type@?$_Func_impl_no_alloc@P6A_K_K@Z_K_K@std@@EEBAAEBVtype_info@@XZ"
	.globl	"?_Target_type@?$_Func_impl_no_alloc@P6A_K_K@Z_K_K@std@@EEBAAEBVtype_info@@XZ" # -- Begin function ?_Target_type@?$_Func_impl_no_alloc@P6A_K_K@Z_K_K@std@@EEBAAEBVtype_info@@XZ
	.p2align	4, 0x90
"?_Target_type@?$_Func_impl_no_alloc@P6A_K_K@Z_K_K@std@@EEBAAEBVtype_info@@XZ": # @"?_Target_type@?$_Func_impl_no_alloc@P6A_K_K@Z_K_K@std@@EEBAAEBVtype_info@@XZ"
# %bb.0:
	leaq	"??_R0P6A_K_K@Z@8"(%rip), %rax
	retq
                                        # -- End function
	.def	"?_Delete_this@?$_Func_impl_no_alloc@P6A_K_K@Z_K_K@std@@EEAAX_N@Z";
	.scl	2;
	.type	32;
	.endef
	.section	.text,"xr",discard,"?_Delete_this@?$_Func_impl_no_alloc@P6A_K_K@Z_K_K@std@@EEAAX_N@Z"
	.globl	"?_Delete_this@?$_Func_impl_no_alloc@P6A_K_K@Z_K_K@std@@EEAAX_N@Z" # -- Begin function ?_Delete_this@?$_Func_impl_no_alloc@P6A_K_K@Z_K_K@std@@EEAAX_N@Z
	.p2align	4, 0x90
"?_Delete_this@?$_Func_impl_no_alloc@P6A_K_K@Z_K_K@std@@EEAAX_N@Z": # @"?_Delete_this@?$_Func_impl_no_alloc@P6A_K_K@Z_K_K@std@@EEAAX_N@Z"
# %bb.0:
	testb	%dl, %dl
	je	.LBB31_1
# %bb.2:
	movl	$16, %edx
	jmp	"??3@YAXPEAX_K@Z"               # TAILCALL
.LBB31_1:
	retq
                                        # -- End function
	.def	"?_Get@?$_Func_impl_no_alloc@P6A_K_K@Z_K_K@std@@EEBAPEBXXZ";
	.scl	2;
	.type	32;
	.endef
	.section	.text,"xr",discard,"?_Get@?$_Func_impl_no_alloc@P6A_K_K@Z_K_K@std@@EEBAPEBXXZ"
	.globl	"?_Get@?$_Func_impl_no_alloc@P6A_K_K@Z_K_K@std@@EEBAPEBXXZ" # -- Begin function ?_Get@?$_Func_impl_no_alloc@P6A_K_K@Z_K_K@std@@EEBAPEBXXZ
	.p2align	4, 0x90
"?_Get@?$_Func_impl_no_alloc@P6A_K_K@Z_K_K@std@@EEBAPEBXXZ": # @"?_Get@?$_Func_impl_no_alloc@P6A_K_K@Z_K_K@std@@EEBAPEBXXZ"
# %bb.0:
	leaq	8(%rcx), %rax
	retq
                                        # -- End function
	.def	"?_Copy@?$_Func_impl_no_alloc@V?$_Binder@U_Unforced@std@@A6A_K_K0@ZAEBU?$_Ph@$00@2@H@std@@_K_K@std@@EEBAPEAV?$_Func_base@_K_K@2@PEAX@Z";
	.scl	2;
	.type	32;
	.endef
	.section	.text,"xr",discard,"?_Copy@?$_Func_impl_no_alloc@V?$_Binder@U_Unforced@std@@A6A_K_K0@ZAEBU?$_Ph@$00@2@H@std@@_K_K@std@@EEBAPEAV?$_Func_base@_K_K@2@PEAX@Z"
	.globl	"?_Copy@?$_Func_impl_no_alloc@V?$_Binder@U_Unforced@std@@A6A_K_K0@ZAEBU?$_Ph@$00@2@H@std@@_K_K@std@@EEBAPEAV?$_Func_base@_K_K@2@PEAX@Z" # -- Begin function ?_Copy@?$_Func_impl_no_alloc@V?$_Binder@U_Unforced@std@@A6A_K_K0@ZAEBU?$_Ph@$00@2@H@std@@_K_K@std@@EEBAPEAV?$_Func_base@_K_K@2@PEAX@Z
	.p2align	4, 0x90
"?_Copy@?$_Func_impl_no_alloc@V?$_Binder@U_Unforced@std@@A6A_K_K0@ZAEBU?$_Ph@$00@2@H@std@@_K_K@std@@EEBAPEAV?$_Func_base@_K_K@2@PEAX@Z": # @"?_Copy@?$_Func_impl_no_alloc@V?$_Binder@U_Unforced@std@@A6A_K_K0@ZAEBU?$_Ph@$00@2@H@std@@_K_K@std@@EEBAPEAV?$_Func_base@_K_K@2@PEAX@Z"
# %bb.0:
	movq	%rdx, %rax
	leaq	"??_7?$_Func_impl_no_alloc@V?$_Binder@U_Unforced@std@@A6A_K_K0@ZAEBU?$_Ph@$00@2@H@std@@_K_K@std@@6B@"(%rip), %rdx
	movq	%rdx, (%rax)
	movq	8(%rcx), %rdx
	movq	%rdx, 8(%rax)
	movl	16(%rcx), %edx
	movl	%edx, 16(%rax)
	movzbl	20(%rcx), %ecx
	movb	%cl, 20(%rax)
	retq
                                        # -- End function
	.def	"?_Move@?$_Func_impl_no_alloc@V?$_Binder@U_Unforced@std@@A6A_K_K0@ZAEBU?$_Ph@$00@2@H@std@@_K_K@std@@EEAAPEAV?$_Func_base@_K_K@2@PEAX@Z";
	.scl	2;
	.type	32;
	.endef
	.section	.text,"xr",discard,"?_Move@?$_Func_impl_no_alloc@V?$_Binder@U_Unforced@std@@A6A_K_K0@ZAEBU?$_Ph@$00@2@H@std@@_K_K@std@@EEAAPEAV?$_Func_base@_K_K@2@PEAX@Z"
	.globl	"?_Move@?$_Func_impl_no_alloc@V?$_Binder@U_Unforced@std@@A6A_K_K0@ZAEBU?$_Ph@$00@2@H@std@@_K_K@std@@EEAAPEAV?$_Func_base@_K_K@2@PEAX@Z" # -- Begin function ?_Move@?$_Func_impl_no_alloc@V?$_Binder@U_Unforced@std@@A6A_K_K0@ZAEBU?$_Ph@$00@2@H@std@@_K_K@std@@EEAAPEAV?$_Func_base@_K_K@2@PEAX@Z
	.p2align	4, 0x90
"?_Move@?$_Func_impl_no_alloc@V?$_Binder@U_Unforced@std@@A6A_K_K0@ZAEBU?$_Ph@$00@2@H@std@@_K_K@std@@EEAAPEAV?$_Func_base@_K_K@2@PEAX@Z": # @"?_Move@?$_Func_impl_no_alloc@V?$_Binder@U_Unforced@std@@A6A_K_K0@ZAEBU?$_Ph@$00@2@H@std@@_K_K@std@@EEAAPEAV?$_Func_base@_K_K@2@PEAX@Z"
# %bb.0:
	movq	%rdx, %rax
	leaq	"??_7?$_Func_impl_no_alloc@V?$_Binder@U_Unforced@std@@A6A_K_K0@ZAEBU?$_Ph@$00@2@H@std@@_K_K@std@@6B@"(%rip), %rdx
	movq	%rdx, (%rax)
	movq	8(%rcx), %rdx
	movq	%rdx, 8(%rax)
	movl	16(%rcx), %edx
	movl	%edx, 16(%rax)
	movzbl	20(%rcx), %ecx
	movb	%cl, 20(%rax)
	retq
                                        # -- End function
	.def	"?_Do_call@?$_Func_impl_no_alloc@V?$_Binder@U_Unforced@std@@A6A_K_K0@ZAEBU?$_Ph@$00@2@H@std@@_K_K@std@@EEAA_K$$QEA_K@Z";
	.scl	2;
	.type	32;
	.endef
	.section	.text,"xr",discard,"?_Do_call@?$_Func_impl_no_alloc@V?$_Binder@U_Unforced@std@@A6A_K_K0@ZAEBU?$_Ph@$00@2@H@std@@_K_K@std@@EEAA_K$$QEA_K@Z"
	.globl	"?_Do_call@?$_Func_impl_no_alloc@V?$_Binder@U_Unforced@std@@A6A_K_K0@ZAEBU?$_Ph@$00@2@H@std@@_K_K@std@@EEAA_K$$QEA_K@Z" # -- Begin function ?_Do_call@?$_Func_impl_no_alloc@V?$_Binder@U_Unforced@std@@A6A_K_K0@ZAEBU?$_Ph@$00@2@H@std@@_K_K@std@@EEAA_K$$QEA_K@Z
	.p2align	4, 0x90
"?_Do_call@?$_Func_impl_no_alloc@V?$_Binder@U_Unforced@std@@A6A_K_K0@ZAEBU?$_Ph@$00@2@H@std@@_K_K@std@@EEAA_K$$QEA_K@Z": # @"?_Do_call@?$_Func_impl_no_alloc@V?$_Binder@U_Unforced@std@@A6A_K_K0@ZAEBU?$_Ph@$00@2@H@std@@_K_K@std@@EEAA_K$$QEA_K@Z"
# %bb.0:
	movq	8(%rcx), %r8
	movslq	16(%rcx), %rax
	movq	(%rdx), %rcx
	movq	%rax, %rdx
	rex64 jmpq	*%r8                    # TAILCALL
                                        # -- End function
	.def	"?_Target_type@?$_Func_impl_no_alloc@V?$_Binder@U_Unforced@std@@A6A_K_K0@ZAEBU?$_Ph@$00@2@H@std@@_K_K@std@@EEBAAEBVtype_info@@XZ";
	.scl	2;
	.type	32;
	.endef
	.section	.text,"xr",discard,"?_Target_type@?$_Func_impl_no_alloc@V?$_Binder@U_Unforced@std@@A6A_K_K0@ZAEBU?$_Ph@$00@2@H@std@@_K_K@std@@EEBAAEBVtype_info@@XZ"
	.globl	"?_Target_type@?$_Func_impl_no_alloc@V?$_Binder@U_Unforced@std@@A6A_K_K0@ZAEBU?$_Ph@$00@2@H@std@@_K_K@std@@EEBAAEBVtype_info@@XZ" # -- Begin function ?_Target_type@?$_Func_impl_no_alloc@V?$_Binder@U_Unforced@std@@A6A_K_K0@ZAEBU?$_Ph@$00@2@H@std@@_K_K@std@@EEBAAEBVtype_info@@XZ
	.p2align	4, 0x90
"?_Target_type@?$_Func_impl_no_alloc@V?$_Binder@U_Unforced@std@@A6A_K_K0@ZAEBU?$_Ph@$00@2@H@std@@_K_K@std@@EEBAAEBVtype_info@@XZ": # @"?_Target_type@?$_Func_impl_no_alloc@V?$_Binder@U_Unforced@std@@A6A_K_K0@ZAEBU?$_Ph@$00@2@H@std@@_K_K@std@@EEBAAEBVtype_info@@XZ"
# %bb.0:
	leaq	"??_R0?AV?$_Binder@U_Unforced@std@@A6A_K_K0@ZAEBU?$_Ph@$00@2@H@std@@@8"(%rip), %rax
	retq
                                        # -- End function
	.def	"?_Delete_this@?$_Func_impl_no_alloc@V?$_Binder@U_Unforced@std@@A6A_K_K0@ZAEBU?$_Ph@$00@2@H@std@@_K_K@std@@EEAAX_N@Z";
	.scl	2;
	.type	32;
	.endef
	.section	.text,"xr",discard,"?_Delete_this@?$_Func_impl_no_alloc@V?$_Binder@U_Unforced@std@@A6A_K_K0@ZAEBU?$_Ph@$00@2@H@std@@_K_K@std@@EEAAX_N@Z"
	.globl	"?_Delete_this@?$_Func_impl_no_alloc@V?$_Binder@U_Unforced@std@@A6A_K_K0@ZAEBU?$_Ph@$00@2@H@std@@_K_K@std@@EEAAX_N@Z" # -- Begin function ?_Delete_this@?$_Func_impl_no_alloc@V?$_Binder@U_Unforced@std@@A6A_K_K0@ZAEBU?$_Ph@$00@2@H@std@@_K_K@std@@EEAAX_N@Z
	.p2align	4, 0x90
"?_Delete_this@?$_Func_impl_no_alloc@V?$_Binder@U_Unforced@std@@A6A_K_K0@ZAEBU?$_Ph@$00@2@H@std@@_K_K@std@@EEAAX_N@Z": # @"?_Delete_this@?$_Func_impl_no_alloc@V?$_Binder@U_Unforced@std@@A6A_K_K0@ZAEBU?$_Ph@$00@2@H@std@@_K_K@std@@EEAAX_N@Z"
# %bb.0:
	testb	%dl, %dl
	je	.LBB37_1
# %bb.2:
	movl	$24, %edx
	jmp	"??3@YAXPEAX_K@Z"               # TAILCALL
.LBB37_1:
	retq
                                        # -- End function
	.def	"?_Get@?$_Func_impl_no_alloc@V?$_Binder@U_Unforced@std@@A6A_K_K0@ZAEBU?$_Ph@$00@2@H@std@@_K_K@std@@EEBAPEBXXZ";
	.scl	2;
	.type	32;
	.endef
	.section	.text,"xr",discard,"?_Get@?$_Func_impl_no_alloc@V?$_Binder@U_Unforced@std@@A6A_K_K0@ZAEBU?$_Ph@$00@2@H@std@@_K_K@std@@EEBAPEBXXZ"
	.globl	"?_Get@?$_Func_impl_no_alloc@V?$_Binder@U_Unforced@std@@A6A_K_K0@ZAEBU?$_Ph@$00@2@H@std@@_K_K@std@@EEBAPEBXXZ" # -- Begin function ?_Get@?$_Func_impl_no_alloc@V?$_Binder@U_Unforced@std@@A6A_K_K0@ZAEBU?$_Ph@$00@2@H@std@@_K_K@std@@EEBAPEBXXZ
	.p2align	4, 0x90
"?_Get@?$_Func_impl_no_alloc@V?$_Binder@U_Unforced@std@@A6A_K_K0@ZAEBU?$_Ph@$00@2@H@std@@_K_K@std@@EEBAPEBXXZ": # @"?_Get@?$_Func_impl_no_alloc@V?$_Binder@U_Unforced@std@@A6A_K_K0@ZAEBU?$_Ph@$00@2@H@std@@_K_K@std@@EEBAPEBXXZ"
# %bb.0:
	leaq	8(%rcx), %rax
	retq
                                        # -- End function
	.def	"?_Copy@?$_Func_impl_no_alloc@P6A?AV?$basic_string@DU?$char_traits@D@std@@V?$allocator@D@2@@std@@V12@@ZV12@V12@@std@@EEBAPEAV?$_Func_base@V?$basic_string@DU?$char_traits@D@std@@V?$allocator@D@2@@std@@V12@@2@PEAX@Z";
	.scl	2;
	.type	32;
	.endef
	.section	.text,"xr",discard,"?_Copy@?$_Func_impl_no_alloc@P6A?AV?$basic_string@DU?$char_traits@D@std@@V?$allocator@D@2@@std@@V12@@ZV12@V12@@std@@EEBAPEAV?$_Func_base@V?$basic_string@DU?$char_traits@D@std@@V?$allocator@D@2@@std@@V12@@2@PEAX@Z"
	.globl	"?_Copy@?$_Func_impl_no_alloc@P6A?AV?$basic_string@DU?$char_traits@D@std@@V?$allocator@D@2@@std@@V12@@ZV12@V12@@std@@EEBAPEAV?$_Func_base@V?$basic_string@DU?$char_traits@D@std@@V?$allocator@D@2@@std@@V12@@2@PEAX@Z" # -- Begin function ?_Copy@?$_Func_impl_no_alloc@P6A?AV?$basic_string@DU?$char_traits@D@std@@V?$allocator@D@2@@std@@V12@@ZV12@V12@@std@@EEBAPEAV?$_Func_base@V?$basic_string@DU?$char_traits@D@std@@V?$allocator@D@2@@std@@V12@@2@PEAX@Z
	.p2align	4, 0x90
"?_Copy@?$_Func_impl_no_alloc@P6A?AV?$basic_string@DU?$char_traits@D@std@@V?$allocator@D@2@@std@@V12@@ZV12@V12@@std@@EEBAPEAV?$_Func_base@V?$basic_string@DU?$char_traits@D@std@@V?$allocator@D@2@@std@@V12@@2@PEAX@Z": # @"?_Copy@?$_Func_impl_no_alloc@P6A?AV?$basic_string@DU?$char_traits@D@std@@V?$allocator@D@2@@std@@V12@@ZV12@V12@@std@@EEBAPEAV?$_Func_base@V?$basic_string@DU?$char_traits@D@std@@V?$allocator@D@2@@std@@V12@@2@PEAX@Z"
# %bb.0:
	movq	%rdx, %rax
	leaq	"??_7?$_Func_impl_no_alloc@P6A?AV?$basic_string@DU?$char_traits@D@std@@V?$allocator@D@2@@std@@V12@@ZV12@V12@@std@@6B@"(%rip), %rdx
	movq	%rdx, (%rax)
	movq	8(%rcx), %rcx
	movq	%rcx, 8(%rax)
	retq
                                        # -- End function
	.def	"?_Move@?$_Func_impl_no_alloc@P6A?AV?$basic_string@DU?$char_traits@D@std@@V?$allocator@D@2@@std@@V12@@ZV12@V12@@std@@EEAAPEAV?$_Func_base@V?$basic_string@DU?$char_traits@D@std@@V?$allocator@D@2@@std@@V12@@2@PEAX@Z";
	.scl	2;
	.type	32;
	.endef
	.section	.text,"xr",discard,"?_Move@?$_Func_impl_no_alloc@P6A?AV?$basic_string@DU?$char_traits@D@std@@V?$allocator@D@2@@std@@V12@@ZV12@V12@@std@@EEAAPEAV?$_Func_base@V?$basic_string@DU?$char_traits@D@std@@V?$allocator@D@2@@std@@V12@@2@PEAX@Z"
	.globl	"?_Move@?$_Func_impl_no_alloc@P6A?AV?$basic_string@DU?$char_traits@D@std@@V?$allocator@D@2@@std@@V12@@ZV12@V12@@std@@EEAAPEAV?$_Func_base@V?$basic_string@DU?$char_traits@D@std@@V?$allocator@D@2@@std@@V12@@2@PEAX@Z" # -- Begin function ?_Move@?$_Func_impl_no_alloc@P6A?AV?$basic_string@DU?$char_traits@D@std@@V?$allocator@D@2@@std@@V12@@ZV12@V12@@std@@EEAAPEAV?$_Func_base@V?$basic_string@DU?$char_traits@D@std@@V?$allocator@D@2@@std@@V12@@2@PEAX@Z
	.p2align	4, 0x90
"?_Move@?$_Func_impl_no_alloc@P6A?AV?$basic_string@DU?$char_traits@D@std@@V?$allocator@D@2@@std@@V12@@ZV12@V12@@std@@EEAAPEAV?$_Func_base@V?$basic_string@DU?$char_traits@D@std@@V?$allocator@D@2@@std@@V12@@2@PEAX@Z": # @"?_Move@?$_Func_impl_no_alloc@P6A?AV?$basic_string@DU?$char_traits@D@std@@V?$allocator@D@2@@std@@V12@@ZV12@V12@@std@@EEAAPEAV?$_Func_base@V?$basic_string@DU?$char_traits@D@std@@V?$allocator@D@2@@std@@V12@@2@PEAX@Z"
# %bb.0:
	movq	%rdx, %rax
	leaq	"??_7?$_Func_impl_no_alloc@P6A?AV?$basic_string@DU?$char_traits@D@std@@V?$allocator@D@2@@std@@V12@@ZV12@V12@@std@@6B@"(%rip), %rdx
	movq	%rdx, (%rax)
	movq	8(%rcx), %rcx
	movq	%rcx, 8(%rax)
	retq
                                        # -- End function
	.def	"?_Do_call@?$_Func_impl_no_alloc@P6A?AV?$basic_string@DU?$char_traits@D@std@@V?$allocator@D@2@@std@@V12@@ZV12@V12@@std@@EEAA?AV?$basic_string@DU?$char_traits@D@std@@V?$allocator@D@2@@2@$$QEAV32@@Z";
	.scl	2;
	.type	32;
	.endef
	.section	.text,"xr",discard,"?_Do_call@?$_Func_impl_no_alloc@P6A?AV?$basic_string@DU?$char_traits@D@std@@V?$allocator@D@2@@std@@V12@@ZV12@V12@@std@@EEAA?AV?$basic_string@DU?$char_traits@D@std@@V?$allocator@D@2@@2@$$QEAV32@@Z"
	.globl	"?_Do_call@?$_Func_impl_no_alloc@P6A?AV?$basic_string@DU?$char_traits@D@std@@V?$allocator@D@2@@std@@V12@@ZV12@V12@@std@@EEAA?AV?$basic_string@DU?$char_traits@D@std@@V?$allocator@D@2@@2@$$QEAV32@@Z" # -- Begin function ?_Do_call@?$_Func_impl_no_alloc@P6A?AV?$basic_string@DU?$char_traits@D@std@@V?$allocator@D@2@@std@@V12@@ZV12@V12@@std@@EEAA?AV?$basic_string@DU?$char_traits@D@std@@V?$allocator@D@2@@2@$$QEAV32@@Z
	.p2align	4, 0x90
"?_Do_call@?$_Func_impl_no_alloc@P6A?AV?$basic_string@DU?$char_traits@D@std@@V?$allocator@D@2@@std@@V12@@ZV12@V12@@std@@EEAA?AV?$basic_string@DU?$char_traits@D@std@@V?$allocator@D@2@@2@$$QEAV32@@Z": # @"?_Do_call@?$_Func_impl_no_alloc@P6A?AV?$basic_string@DU?$char_traits@D@std@@V?$allocator@D@2@@std@@V12@@ZV12@V12@@std@@EEAA?AV?$basic_string@DU?$char_traits@D@std@@V?$allocator@D@2@@2@$$QEAV32@@Z"
.seh_proc "?_Do_call@?$_Func_impl_no_alloc@P6A?AV?$basic_string@DU?$char_traits@D@std@@V?$allocator@D@2@@std@@V12@@ZV12@V12@@std@@EEAA?AV?$basic_string@DU?$char_traits@D@std@@V?$allocator@D@2@@2@$$QEAV32@@Z"
# %bb.0:
	pushq	%rsi
	.seh_pushreg %rsi
	subq	$64, %rsp
	.seh_stackalloc 64
	.seh_endprologue
	movq	%rdx, %rsi
	movq	8(%rcx), %rax
	movq	$0, 32(%rsp)
	xorps	%xmm0, %xmm0
	movaps	%xmm0, 48(%rsp)
	movups	(%r8), %xmm0
	movups	16(%r8), %xmm1
	movaps	%xmm1, 48(%rsp)
	movaps	%xmm0, 32(%rsp)
	movq	$0, 16(%r8)
	movq	$15, 24(%r8)
	movb	$0, (%r8)
	leaq	32(%rsp), %rdx
	movq	%rsi, %rcx
	callq	*%rax
	movq	%rsi, %rax
	addq	$64, %rsp
	popq	%rsi
	retq
	.seh_endproc
                                        # -- End function
	.def	"?_Target_type@?$_Func_impl_no_alloc@P6A?AV?$basic_string@DU?$char_traits@D@std@@V?$allocator@D@2@@std@@V12@@ZV12@V12@@std@@EEBAAEBVtype_info@@XZ";
	.scl	2;
	.type	32;
	.endef
	.section	.text,"xr",discard,"?_Target_type@?$_Func_impl_no_alloc@P6A?AV?$basic_string@DU?$char_traits@D@std@@V?$allocator@D@2@@std@@V12@@ZV12@V12@@std@@EEBAAEBVtype_info@@XZ"
	.globl	"?_Target_type@?$_Func_impl_no_alloc@P6A?AV?$basic_string@DU?$char_traits@D@std@@V?$allocator@D@2@@std@@V12@@ZV12@V12@@std@@EEBAAEBVtype_info@@XZ" # -- Begin function ?_Target_type@?$_Func_impl_no_alloc@P6A?AV?$basic_string@DU?$char_traits@D@std@@V?$allocator@D@2@@std@@V12@@ZV12@V12@@std@@EEBAAEBVtype_info@@XZ
	.p2align	4, 0x90
"?_Target_type@?$_Func_impl_no_alloc@P6A?AV?$basic_string@DU?$char_traits@D@std@@V?$allocator@D@2@@std@@V12@@ZV12@V12@@std@@EEBAAEBVtype_info@@XZ": # @"?_Target_type@?$_Func_impl_no_alloc@P6A?AV?$basic_string@DU?$char_traits@D@std@@V?$allocator@D@2@@std@@V12@@ZV12@V12@@std@@EEBAAEBVtype_info@@XZ"
# %bb.0:
	leaq	"??_R0P6A?AV?$basic_string@DU?$char_traits@D@std@@V?$allocator@D@2@@std@@V01@@Z@8"(%rip), %rax
	retq
                                        # -- End function
	.def	"?_Delete_this@?$_Func_impl_no_alloc@P6A?AV?$basic_string@DU?$char_traits@D@std@@V?$allocator@D@2@@std@@V12@@ZV12@V12@@std@@EEAAX_N@Z";
	.scl	2;
	.type	32;
	.endef
	.section	.text,"xr",discard,"?_Delete_this@?$_Func_impl_no_alloc@P6A?AV?$basic_string@DU?$char_traits@D@std@@V?$allocator@D@2@@std@@V12@@ZV12@V12@@std@@EEAAX_N@Z"
	.globl	"?_Delete_this@?$_Func_impl_no_alloc@P6A?AV?$basic_string@DU?$char_traits@D@std@@V?$allocator@D@2@@std@@V12@@ZV12@V12@@std@@EEAAX_N@Z" # -- Begin function ?_Delete_this@?$_Func_impl_no_alloc@P6A?AV?$basic_string@DU?$char_traits@D@std@@V?$allocator@D@2@@std@@V12@@ZV12@V12@@std@@EEAAX_N@Z
	.p2align	4, 0x90
"?_Delete_this@?$_Func_impl_no_alloc@P6A?AV?$basic_string@DU?$char_traits@D@std@@V?$allocator@D@2@@std@@V12@@ZV12@V12@@std@@EEAAX_N@Z": # @"?_Delete_this@?$_Func_impl_no_alloc@P6A?AV?$basic_string@DU?$char_traits@D@std@@V?$allocator@D@2@@std@@V12@@ZV12@V12@@std@@EEAAX_N@Z"
# %bb.0:
	testb	%dl, %dl
	je	.LBB43_1
# %bb.2:
	movl	$16, %edx
	jmp	"??3@YAXPEAX_K@Z"               # TAILCALL
.LBB43_1:
	retq
                                        # -- End function
	.def	"?_Get@?$_Func_impl_no_alloc@P6A?AV?$basic_string@DU?$char_traits@D@std@@V?$allocator@D@2@@std@@V12@@ZV12@V12@@std@@EEBAPEBXXZ";
	.scl	2;
	.type	32;
	.endef
	.section	.text,"xr",discard,"?_Get@?$_Func_impl_no_alloc@P6A?AV?$basic_string@DU?$char_traits@D@std@@V?$allocator@D@2@@std@@V12@@ZV12@V12@@std@@EEBAPEBXXZ"
	.globl	"?_Get@?$_Func_impl_no_alloc@P6A?AV?$basic_string@DU?$char_traits@D@std@@V?$allocator@D@2@@std@@V12@@ZV12@V12@@std@@EEBAPEBXXZ" # -- Begin function ?_Get@?$_Func_impl_no_alloc@P6A?AV?$basic_string@DU?$char_traits@D@std@@V?$allocator@D@2@@std@@V12@@ZV12@V12@@std@@EEBAPEBXXZ
	.p2align	4, 0x90
"?_Get@?$_Func_impl_no_alloc@P6A?AV?$basic_string@DU?$char_traits@D@std@@V?$allocator@D@2@@std@@V12@@ZV12@V12@@std@@EEBAPEBXXZ": # @"?_Get@?$_Func_impl_no_alloc@P6A?AV?$basic_string@DU?$char_traits@D@std@@V?$allocator@D@2@@std@@V12@@ZV12@V12@@std@@EEBAPEBXXZ"
# %bb.0:
	leaq	8(%rcx), %rax
	retq
                                        # -- End function
	.def	"?_Copy@?$_Func_impl_no_alloc@V?$_Binder@U_Unforced@std@@A6A?AV?$basic_string@DU?$char_traits@D@std@@V?$allocator@D@2@@2@V32@0@ZAEBU?$_Ph@$00@2@AEAY00$$CBD@std@@V?$basic_string@DU?$char_traits@D@std@@V?$allocator@D@2@@2@V32@@std@@EEBAPEAV?$_Func_base@V?$basic_string@DU?$char_traits@D@std@@V?$allocator@D@2@@std@@V12@@2@PEAX@Z";
	.scl	2;
	.type	32;
	.endef
	.section	.text,"xr",discard,"?_Copy@?$_Func_impl_no_alloc@V?$_Binder@U_Unforced@std@@A6A?AV?$basic_string@DU?$char_traits@D@std@@V?$allocator@D@2@@2@V32@0@ZAEBU?$_Ph@$00@2@AEAY00$$CBD@std@@V?$basic_string@DU?$char_traits@D@std@@V?$allocator@D@2@@2@V32@@std@@EEBAPEAV?$_Func_base@V?$basic_string@DU?$char_traits@D@std@@V?$allocator@D@2@@std@@V12@@2@PEAX@Z"
	.globl	"?_Copy@?$_Func_impl_no_alloc@V?$_Binder@U_Unforced@std@@A6A?AV?$basic_string@DU?$char_traits@D@std@@V?$allocator@D@2@@2@V32@0@ZAEBU?$_Ph@$00@2@AEAY00$$CBD@std@@V?$basic_string@DU?$char_traits@D@std@@V?$allocator@D@2@@2@V32@@std@@EEBAPEAV?$_Func_base@V?$basic_string@DU?$char_traits@D@std@@V?$allocator@D@2@@std@@V12@@2@PEAX@Z" # -- Begin function ?_Copy@?$_Func_impl_no_alloc@V?$_Binder@U_Unforced@std@@A6A?AV?$basic_string@DU?$char_traits@D@std@@V?$allocator@D@2@@2@V32@0@ZAEBU?$_Ph@$00@2@AEAY00$$CBD@std@@V?$basic_string@DU?$char_traits@D@std@@V?$allocator@D@2@@2@V32@@std@@EEBAPEAV?$_Func_base@V?$basic_string@DU?$char_traits@D@std@@V?$allocator@D@2@@std@@V12@@2@PEAX@Z
	.p2align	4, 0x90
"?_Copy@?$_Func_impl_no_alloc@V?$_Binder@U_Unforced@std@@A6A?AV?$basic_string@DU?$char_traits@D@std@@V?$allocator@D@2@@2@V32@0@ZAEBU?$_Ph@$00@2@AEAY00$$CBD@std@@V?$basic_string@DU?$char_traits@D@std@@V?$allocator@D@2@@2@V32@@std@@EEBAPEAV?$_Func_base@V?$basic_string@DU?$char_traits@D@std@@V?$allocator@D@2@@std@@V12@@2@PEAX@Z": # @"?_Copy@?$_Func_impl_no_alloc@V?$_Binder@U_Unforced@std@@A6A?AV?$basic_string@DU?$char_traits@D@std@@V?$allocator@D@2@@2@V32@0@ZAEBU?$_Ph@$00@2@AEAY00$$CBD@std@@V?$basic_string@DU?$char_traits@D@std@@V?$allocator@D@2@@2@V32@@std@@EEBAPEAV?$_Func_base@V?$basic_string@DU?$char_traits@D@std@@V?$allocator@D@2@@std@@V12@@2@PEAX@Z"
# %bb.0:
	movq	%rdx, %rax
	leaq	"??_7?$_Func_impl_no_alloc@V?$_Binder@U_Unforced@std@@A6A?AV?$basic_string@DU?$char_traits@D@std@@V?$allocator@D@2@@2@V32@0@ZAEBU?$_Ph@$00@2@AEAY00$$CBD@std@@V?$basic_string@DU?$char_traits@D@std@@V?$allocator@D@2@@2@V32@@std@@6B@"(%rip), %rdx
	movq	%rdx, (%rax)
	movq	8(%rcx), %rdx
	movq	%rdx, 8(%rax)
	movq	16(%rcx), %rdx
	movq	%rdx, 16(%rax)
	movzbl	24(%rcx), %ecx
	movb	%cl, 24(%rax)
	retq
                                        # -- End function
	.def	"?_Move@?$_Func_impl_no_alloc@V?$_Binder@U_Unforced@std@@A6A?AV?$basic_string@DU?$char_traits@D@std@@V?$allocator@D@2@@2@V32@0@ZAEBU?$_Ph@$00@2@AEAY00$$CBD@std@@V?$basic_string@DU?$char_traits@D@std@@V?$allocator@D@2@@2@V32@@std@@EEAAPEAV?$_Func_base@V?$basic_string@DU?$char_traits@D@std@@V?$allocator@D@2@@std@@V12@@2@PEAX@Z";
	.scl	2;
	.type	32;
	.endef
	.section	.text,"xr",discard,"?_Move@?$_Func_impl_no_alloc@V?$_Binder@U_Unforced@std@@A6A?AV?$basic_string@DU?$char_traits@D@std@@V?$allocator@D@2@@2@V32@0@ZAEBU?$_Ph@$00@2@AEAY00$$CBD@std@@V?$basic_string@DU?$char_traits@D@std@@V?$allocator@D@2@@2@V32@@std@@EEAAPEAV?$_Func_base@V?$basic_string@DU?$char_traits@D@std@@V?$allocator@D@2@@std@@V12@@2@PEAX@Z"
	.globl	"?_Move@?$_Func_impl_no_alloc@V?$_Binder@U_Unforced@std@@A6A?AV?$basic_string@DU?$char_traits@D@std@@V?$allocator@D@2@@2@V32@0@ZAEBU?$_Ph@$00@2@AEAY00$$CBD@std@@V?$basic_string@DU?$char_traits@D@std@@V?$allocator@D@2@@2@V32@@std@@EEAAPEAV?$_Func_base@V?$basic_string@DU?$char_traits@D@std@@V?$allocator@D@2@@std@@V12@@2@PEAX@Z" # -- Begin function ?_Move@?$_Func_impl_no_alloc@V?$_Binder@U_Unforced@std@@A6A?AV?$basic_string@DU?$char_traits@D@std@@V?$allocator@D@2@@2@V32@0@ZAEBU?$_Ph@$00@2@AEAY00$$CBD@std@@V?$basic_string@DU?$char_traits@D@std@@V?$allocator@D@2@@2@V32@@std@@EEAAPEAV?$_Func_base@V?$basic_string@DU?$char_traits@D@std@@V?$allocator@D@2@@std@@V12@@2@PEAX@Z
	.p2align	4, 0x90
"?_Move@?$_Func_impl_no_alloc@V?$_Binder@U_Unforced@std@@A6A?AV?$basic_string@DU?$char_traits@D@std@@V?$allocator@D@2@@2@V32@0@ZAEBU?$_Ph@$00@2@AEAY00$$CBD@std@@V?$basic_string@DU?$char_traits@D@std@@V?$allocator@D@2@@2@V32@@std@@EEAAPEAV?$_Func_base@V?$basic_string@DU?$char_traits@D@std@@V?$allocator@D@2@@std@@V12@@2@PEAX@Z": # @"?_Move@?$_Func_impl_no_alloc@V?$_Binder@U_Unforced@std@@A6A?AV?$basic_string@DU?$char_traits@D@std@@V?$allocator@D@2@@2@V32@0@ZAEBU?$_Ph@$00@2@AEAY00$$CBD@std@@V?$basic_string@DU?$char_traits@D@std@@V?$allocator@D@2@@2@V32@@std@@EEAAPEAV?$_Func_base@V?$basic_string@DU?$char_traits@D@std@@V?$allocator@D@2@@std@@V12@@2@PEAX@Z"
# %bb.0:
	movq	%rdx, %rax
	leaq	"??_7?$_Func_impl_no_alloc@V?$_Binder@U_Unforced@std@@A6A?AV?$basic_string@DU?$char_traits@D@std@@V?$allocator@D@2@@2@V32@0@ZAEBU?$_Ph@$00@2@AEAY00$$CBD@std@@V?$basic_string@DU?$char_traits@D@std@@V?$allocator@D@2@@2@V32@@std@@6B@"(%rip), %rdx
	movq	%rdx, (%rax)
	movq	8(%rcx), %rdx
	movq	%rdx, 8(%rax)
	movq	16(%rcx), %rdx
	movq	%rdx, 16(%rax)
	movzbl	24(%rcx), %ecx
	movb	%cl, 24(%rax)
	retq
                                        # -- End function
	.def	"?_Do_call@?$_Func_impl_no_alloc@V?$_Binder@U_Unforced@std@@A6A?AV?$basic_string@DU?$char_traits@D@std@@V?$allocator@D@2@@2@V32@0@ZAEBU?$_Ph@$00@2@AEAY00$$CBD@std@@V?$basic_string@DU?$char_traits@D@std@@V?$allocator@D@2@@2@V32@@std@@EEAA?AV?$basic_string@DU?$char_traits@D@std@@V?$allocator@D@2@@2@$$QEAV32@@Z";
	.scl	2;
	.type	32;
	.endef
	.section	.text,"xr",discard,"?_Do_call@?$_Func_impl_no_alloc@V?$_Binder@U_Unforced@std@@A6A?AV?$basic_string@DU?$char_traits@D@std@@V?$allocator@D@2@@2@V32@0@ZAEBU?$_Ph@$00@2@AEAY00$$CBD@std@@V?$basic_string@DU?$char_traits@D@std@@V?$allocator@D@2@@2@V32@@std@@EEAA?AV?$basic_string@DU?$char_traits@D@std@@V?$allocator@D@2@@2@$$QEAV32@@Z"
	.globl	"?_Do_call@?$_Func_impl_no_alloc@V?$_Binder@U_Unforced@std@@A6A?AV?$basic_string@DU?$char_traits@D@std@@V?$allocator@D@2@@2@V32@0@ZAEBU?$_Ph@$00@2@AEAY00$$CBD@std@@V?$basic_string@DU?$char_traits@D@std@@V?$allocator@D@2@@2@V32@@std@@EEAA?AV?$basic_string@DU?$char_traits@D@std@@V?$allocator@D@2@@2@$$QEAV32@@Z" # -- Begin function ?_Do_call@?$_Func_impl_no_alloc@V?$_Binder@U_Unforced@std@@A6A?AV?$basic_string@DU?$char_traits@D@std@@V?$allocator@D@2@@2@V32@0@ZAEBU?$_Ph@$00@2@AEAY00$$CBD@std@@V?$basic_string@DU?$char_traits@D@std@@V?$allocator@D@2@@2@V32@@std@@EEAA?AV?$basic_string@DU?$char_traits@D@std@@V?$allocator@D@2@@2@$$QEAV32@@Z
	.p2align	4, 0x90
"?_Do_call@?$_Func_impl_no_alloc@V?$_Binder@U_Unforced@std@@A6A?AV?$basic_string@DU?$char_traits@D@std@@V?$allocator@D@2@@2@V32@0@ZAEBU?$_Ph@$00@2@AEAY00$$CBD@std@@V?$basic_string@DU?$char_traits@D@std@@V?$allocator@D@2@@2@V32@@std@@EEAA?AV?$basic_string@DU?$char_traits@D@std@@V?$allocator@D@2@@2@$$QEAV32@@Z": # @"?_Do_call@?$_Func_impl_no_alloc@V?$_Binder@U_Unforced@std@@A6A?AV?$basic_string@DU?$char_traits@D@std@@V?$allocator@D@2@@2@V32@0@ZAEBU?$_Ph@$00@2@AEAY00$$CBD@std@@V?$basic_string@DU?$char_traits@D@std@@V?$allocator@D@2@@2@V32@@std@@EEAA?AV?$basic_string@DU?$char_traits@D@std@@V?$allocator@D@2@@2@$$QEAV32@@Z"
.seh_proc "?_Do_call@?$_Func_impl_no_alloc@V?$_Binder@U_Unforced@std@@A6A?AV?$basic_string@DU?$char_traits@D@std@@V?$allocator@D@2@@2@V32@0@ZAEBU?$_Ph@$00@2@AEAY00$$CBD@std@@V?$basic_string@DU?$char_traits@D@std@@V?$allocator@D@2@@2@V32@@std@@EEAA?AV?$basic_string@DU?$char_traits@D@std@@V?$allocator@D@2@@2@$$QEAV32@@Z"
# %bb.0:
	pushq	%r15
	.seh_pushreg %r15
	pushq	%r14
	.seh_pushreg %r14
	pushq	%rsi
	.seh_pushreg %rsi
	pushq	%rdi
	.seh_pushreg %rdi
	pushq	%rbx
	.seh_pushreg %rbx
	subq	$96, %rsp
	.seh_stackalloc 96
	.seh_endprologue
	movq	%r8, %rdi
	movq	%rdx, %rsi
	movq	8(%rcx), %r15
	movq	16(%rcx), %rbx
	movq	$0, 32(%rsp)
	xorps	%xmm0, %xmm0
	movups	%xmm0, 48(%rsp)
	movq	$15, 56(%rsp)
	movb	$0, 32(%rsp)
	movq	%rbx, %rcx
	callq	strlen
	movq	%rax, %r14
	cmpq	$15, %rax
	jbe	.LBB47_1
# %bb.2:
	leaq	32(%rsp), %rcx
	movq	%r14, %rdx
	movq	%rbx, %r9
	callq	"??$_Reallocate_for@V<lambda_1>@?0??assign@?$basic_string@DU?$char_traits@D@std@@V?$allocator@D@2@@std@@QEAAAEAV34@QEBD_K@Z@PEBD@?$basic_string@DU?$char_traits@D@std@@V?$allocator@D@2@@std@@AEAAAEAV01@_KV<lambda_1>@?0??assign@01@QEAAAEAV01@QEBD0@Z@PEBD@Z"
	jmp	.LBB47_3
.LBB47_1:
	movq	%r14, 48(%rsp)
	leaq	32(%rsp), %rcx
	movq	%rbx, %rdx
	movq	%r14, %r8
	callq	memmove
	movb	$0, 32(%rsp,%r14)
.LBB47_3:
	movq	$0, 64(%rsp)
	xorps	%xmm0, %xmm0
	movaps	%xmm0, 80(%rsp)
	movups	(%rdi), %xmm0
	movups	16(%rdi), %xmm1
	movaps	%xmm1, 80(%rsp)
	movaps	%xmm0, 64(%rsp)
	movq	$0, 16(%rdi)
	movq	$15, 24(%rdi)
	movb	$0, (%rdi)
	leaq	64(%rsp), %rdx
	leaq	32(%rsp), %r8
	movq	%rsi, %rcx
	callq	*%r15
	movq	%rsi, %rax
	addq	$96, %rsp
	popq	%rbx
	popq	%rdi
	popq	%rsi
	popq	%r14
	popq	%r15
	retq
	.seh_endproc
                                        # -- End function
	.def	"?_Target_type@?$_Func_impl_no_alloc@V?$_Binder@U_Unforced@std@@A6A?AV?$basic_string@DU?$char_traits@D@std@@V?$allocator@D@2@@2@V32@0@ZAEBU?$_Ph@$00@2@AEAY00$$CBD@std@@V?$basic_string@DU?$char_traits@D@std@@V?$allocator@D@2@@2@V32@@std@@EEBAAEBVtype_info@@XZ";
	.scl	2;
	.type	32;
	.endef
	.section	.text,"xr",discard,"?_Target_type@?$_Func_impl_no_alloc@V?$_Binder@U_Unforced@std@@A6A?AV?$basic_string@DU?$char_traits@D@std@@V?$allocator@D@2@@2@V32@0@ZAEBU?$_Ph@$00@2@AEAY00$$CBD@std@@V?$basic_string@DU?$char_traits@D@std@@V?$allocator@D@2@@2@V32@@std@@EEBAAEBVtype_info@@XZ"
	.globl	"?_Target_type@?$_Func_impl_no_alloc@V?$_Binder@U_Unforced@std@@A6A?AV?$basic_string@DU?$char_traits@D@std@@V?$allocator@D@2@@2@V32@0@ZAEBU?$_Ph@$00@2@AEAY00$$CBD@std@@V?$basic_string@DU?$char_traits@D@std@@V?$allocator@D@2@@2@V32@@std@@EEBAAEBVtype_info@@XZ" # -- Begin function ?_Target_type@?$_Func_impl_no_alloc@V?$_Binder@U_Unforced@std@@A6A?AV?$basic_string@DU?$char_traits@D@std@@V?$allocator@D@2@@2@V32@0@ZAEBU?$_Ph@$00@2@AEAY00$$CBD@std@@V?$basic_string@DU?$char_traits@D@std@@V?$allocator@D@2@@2@V32@@std@@EEBAAEBVtype_info@@XZ
	.p2align	4, 0x90
"?_Target_type@?$_Func_impl_no_alloc@V?$_Binder@U_Unforced@std@@A6A?AV?$basic_string@DU?$char_traits@D@std@@V?$allocator@D@2@@2@V32@0@ZAEBU?$_Ph@$00@2@AEAY00$$CBD@std@@V?$basic_string@DU?$char_traits@D@std@@V?$allocator@D@2@@2@V32@@std@@EEBAAEBVtype_info@@XZ": # @"?_Target_type@?$_Func_impl_no_alloc@V?$_Binder@U_Unforced@std@@A6A?AV?$basic_string@DU?$char_traits@D@std@@V?$allocator@D@2@@2@V32@0@ZAEBU?$_Ph@$00@2@AEAY00$$CBD@std@@V?$basic_string@DU?$char_traits@D@std@@V?$allocator@D@2@@2@V32@@std@@EEBAAEBVtype_info@@XZ"
# %bb.0:
	leaq	"??_R0?AV?$_Binder@U_Unforced@std@@A6A?AV?$basic_string@DU?$char_traits@D@std@@V?$allocator@D@2@@2@V32@0@ZAEBU?$_Ph@$00@2@AEAY00$$CBD@std@@@8"(%rip), %rax
	retq
                                        # -- End function
	.def	"?_Delete_this@?$_Func_impl_no_alloc@V?$_Binder@U_Unforced@std@@A6A?AV?$basic_string@DU?$char_traits@D@std@@V?$allocator@D@2@@2@V32@0@ZAEBU?$_Ph@$00@2@AEAY00$$CBD@std@@V?$basic_string@DU?$char_traits@D@std@@V?$allocator@D@2@@2@V32@@std@@EEAAX_N@Z";
	.scl	2;
	.type	32;
	.endef
	.section	.text,"xr",discard,"?_Delete_this@?$_Func_impl_no_alloc@V?$_Binder@U_Unforced@std@@A6A?AV?$basic_string@DU?$char_traits@D@std@@V?$allocator@D@2@@2@V32@0@ZAEBU?$_Ph@$00@2@AEAY00$$CBD@std@@V?$basic_string@DU?$char_traits@D@std@@V?$allocator@D@2@@2@V32@@std@@EEAAX_N@Z"
	.globl	"?_Delete_this@?$_Func_impl_no_alloc@V?$_Binder@U_Unforced@std@@A6A?AV?$basic_string@DU?$char_traits@D@std@@V?$allocator@D@2@@2@V32@0@ZAEBU?$_Ph@$00@2@AEAY00$$CBD@std@@V?$basic_string@DU?$char_traits@D@std@@V?$allocator@D@2@@2@V32@@std@@EEAAX_N@Z" # -- Begin function ?_Delete_this@?$_Func_impl_no_alloc@V?$_Binder@U_Unforced@std@@A6A?AV?$basic_string@DU?$char_traits@D@std@@V?$allocator@D@2@@2@V32@0@ZAEBU?$_Ph@$00@2@AEAY00$$CBD@std@@V?$basic_string@DU?$char_traits@D@std@@V?$allocator@D@2@@2@V32@@std@@EEAAX_N@Z
	.p2align	4, 0x90
"?_Delete_this@?$_Func_impl_no_alloc@V?$_Binder@U_Unforced@std@@A6A?AV?$basic_string@DU?$char_traits@D@std@@V?$allocator@D@2@@2@V32@0@ZAEBU?$_Ph@$00@2@AEAY00$$CBD@std@@V?$basic_string@DU?$char_traits@D@std@@V?$allocator@D@2@@2@V32@@std@@EEAAX_N@Z": # @"?_Delete_this@?$_Func_impl_no_alloc@V?$_Binder@U_Unforced@std@@A6A?AV?$basic_string@DU?$char_traits@D@std@@V?$allocator@D@2@@2@V32@0@ZAEBU?$_Ph@$00@2@AEAY00$$CBD@std@@V?$basic_string@DU?$char_traits@D@std@@V?$allocator@D@2@@2@V32@@std@@EEAAX_N@Z"
# %bb.0:
	testb	%dl, %dl
	je	.LBB49_1
# %bb.2:
	movl	$32, %edx
	jmp	"??3@YAXPEAX_K@Z"               # TAILCALL
.LBB49_1:
	retq
                                        # -- End function
	.def	"?_Get@?$_Func_impl_no_alloc@V?$_Binder@U_Unforced@std@@A6A?AV?$basic_string@DU?$char_traits@D@std@@V?$allocator@D@2@@2@V32@0@ZAEBU?$_Ph@$00@2@AEAY00$$CBD@std@@V?$basic_string@DU?$char_traits@D@std@@V?$allocator@D@2@@2@V32@@std@@EEBAPEBXXZ";
	.scl	2;
	.type	32;
	.endef
	.section	.text,"xr",discard,"?_Get@?$_Func_impl_no_alloc@V?$_Binder@U_Unforced@std@@A6A?AV?$basic_string@DU?$char_traits@D@std@@V?$allocator@D@2@@2@V32@0@ZAEBU?$_Ph@$00@2@AEAY00$$CBD@std@@V?$basic_string@DU?$char_traits@D@std@@V?$allocator@D@2@@2@V32@@std@@EEBAPEBXXZ"
	.globl	"?_Get@?$_Func_impl_no_alloc@V?$_Binder@U_Unforced@std@@A6A?AV?$basic_string@DU?$char_traits@D@std@@V?$allocator@D@2@@2@V32@0@ZAEBU?$_Ph@$00@2@AEAY00$$CBD@std@@V?$basic_string@DU?$char_traits@D@std@@V?$allocator@D@2@@2@V32@@std@@EEBAPEBXXZ" # -- Begin function ?_Get@?$_Func_impl_no_alloc@V?$_Binder@U_Unforced@std@@A6A?AV?$basic_string@DU?$char_traits@D@std@@V?$allocator@D@2@@2@V32@0@ZAEBU?$_Ph@$00@2@AEAY00$$CBD@std@@V?$basic_string@DU?$char_traits@D@std@@V?$allocator@D@2@@2@V32@@std@@EEBAPEBXXZ
	.p2align	4, 0x90
"?_Get@?$_Func_impl_no_alloc@V?$_Binder@U_Unforced@std@@A6A?AV?$basic_string@DU?$char_traits@D@std@@V?$allocator@D@2@@2@V32@0@ZAEBU?$_Ph@$00@2@AEAY00$$CBD@std@@V?$basic_string@DU?$char_traits@D@std@@V?$allocator@D@2@@2@V32@@std@@EEBAPEBXXZ": # @"?_Get@?$_Func_impl_no_alloc@V?$_Binder@U_Unforced@std@@A6A?AV?$basic_string@DU?$char_traits@D@std@@V?$allocator@D@2@@2@V32@0@ZAEBU?$_Ph@$00@2@AEAY00$$CBD@std@@V?$basic_string@DU?$char_traits@D@std@@V?$allocator@D@2@@2@V32@@std@@EEBAPEBXXZ"
# %bb.0:
	leaq	8(%rcx), %rax
	retq
                                        # -- End function
	.def	"??1?$basic_filebuf@DU?$char_traits@D@std@@@std@@UEAA@XZ";
	.scl	2;
	.type	32;
	.endef
	.section	.text,"xr",discard,"??1?$basic_filebuf@DU?$char_traits@D@std@@@std@@UEAA@XZ"
	.globl	"??1?$basic_filebuf@DU?$char_traits@D@std@@@std@@UEAA@XZ" # -- Begin function ??1?$basic_filebuf@DU?$char_traits@D@std@@@std@@UEAA@XZ
	.p2align	4, 0x90
"??1?$basic_filebuf@DU?$char_traits@D@std@@@std@@UEAA@XZ": # @"??1?$basic_filebuf@DU?$char_traits@D@std@@@std@@UEAA@XZ"
.Lfunc_begin8:
.seh_proc "??1?$basic_filebuf@DU?$char_traits@D@std@@@std@@UEAA@XZ"
	.seh_handler __CxxFrameHandler3, @unwind, @except
# %bb.0:
	pushq	%rbp
	.seh_pushreg %rbp
	pushq	%rsi
	.seh_pushreg %rsi
	subq	$40, %rsp
	.seh_stackalloc 40
	leaq	32(%rsp), %rbp
	.seh_setframe %rbp, 32
	.seh_endprologue
	movq	$-2, (%rbp)
	movq	%rcx, %rsi
	leaq	"??_7?$basic_filebuf@DU?$char_traits@D@std@@@std@@6B@"(%rip), %rax
	movq	%rax, (%rcx)
	cmpq	$0, 128(%rcx)
	je	.LBB51_3
# %bb.1:
	movq	24(%rsi), %rax
	leaq	112(%rsi), %rcx
	cmpq	%rcx, (%rax)
	je	.LBB51_2
.LBB51_3:
	cmpb	$0, 124(%rsi)
	je	.LBB51_8
.LBB51_4:
	cmpq	$0, 128(%rsi)
	je	.LBB51_7
# %bb.5:
.Ltmp166:
	movq	%rsi, %rcx
	callq	"?_Endwrite@?$basic_filebuf@DU?$char_traits@D@std@@@std@@IEAA_NXZ"
.Ltmp167:
# %bb.6:
	movq	128(%rsi), %rcx
	callq	fclose
.LBB51_7:
	movb	$0, 124(%rsi)
	movb	$0, 113(%rsi)
	leaq	8(%rsi), %rax
	movq	%rax, 24(%rsi)
	leaq	16(%rsi), %rax
	movq	%rax, 32(%rsi)
	leaq	40(%rsi), %rax
	movq	%rax, 56(%rsi)
	leaq	48(%rsi), %rax
	movq	%rax, 64(%rsi)
	leaq	72(%rsi), %rax
	movq	%rax, 80(%rsi)
	leaq	76(%rsi), %rax
	movq	%rax, 88(%rsi)
	movq	$0, 72(%rsi)
	xorps	%xmm0, %xmm0
	movups	%xmm0, 8(%rsi)
	movups	%xmm0, 40(%rsi)
	movq	$0, 128(%rsi)
	movq	"?_Stinit@?1??_Init@?$basic_filebuf@DU?$char_traits@D@std@@@std@@IEAAXPEAU_iobuf@@W4_Initfl@23@@Z@4U_Mbstatet@@A"(%rip), %rax
	movq	%rax, 116(%rsi)
	movq	$0, 104(%rsi)
.LBB51_8:
	leaq	"??_7?$basic_streambuf@DU?$char_traits@D@std@@@std@@6B@"(%rip), %rax
	movq	%rax, (%rsi)
	movq	96(%rsi), %rsi
	testq	%rsi, %rsi
	je	.LBB51_13
# %bb.9:
	movq	8(%rsi), %rcx
	testq	%rcx, %rcx
	je	.LBB51_12
# %bb.10:
	movq	(%rcx), %rax
	callq	*16(%rax)
	testq	%rax, %rax
	je	.LBB51_12
# %bb.11:
	movq	(%rax), %r8
	movq	%rax, %rcx
	movl	$1, %edx
	callq	*(%r8)
.LBB51_12:
	movq	%rsi, %rcx
	addq	$40, %rsp
	popq	%rsi
	popq	%rbp
	jmp	"??3@YAXPEAX@Z"                 # TAILCALL
.LBB51_13:
	nop
	addq	$40, %rsp
	popq	%rsi
	popq	%rbp
	retq
.LBB51_2:
	movl	144(%rsi), %ecx
	movq	136(%rsi), %rdx
	movq	%rdx, (%rax)
	movq	56(%rsi), %rax
	movq	%rdx, (%rax)
	subl	%edx, %ecx
	movq	80(%rsi), %rax
	movl	%ecx, (%rax)
	cmpb	$0, 124(%rsi)
	jne	.LBB51_4
	jmp	.LBB51_8
	.seh_handlerdata
	.long	("$cppxdata$??1?$basic_filebuf@DU?$char_traits@D@std@@@std@@UEAA@XZ")@IMGREL
	.section	.text,"xr",discard,"??1?$basic_filebuf@DU?$char_traits@D@std@@@std@@UEAA@XZ"
	.seh_endproc
	.def	"?dtor$14@?0???1?$basic_filebuf@DU?$char_traits@D@std@@@std@@UEAA@XZ@4HA";
	.scl	3;
	.type	32;
	.endef
	.p2align	4, 0x90
"?dtor$14@?0???1?$basic_filebuf@DU?$char_traits@D@std@@@std@@UEAA@XZ@4HA":
.seh_proc "?dtor$14@?0???1?$basic_filebuf@DU?$char_traits@D@std@@@std@@UEAA@XZ@4HA"
.LBB51_14:
	movq	%rdx, 16(%rsp)
	pushq	%rbp
	.seh_pushreg %rbp
	pushq	%rsi
	.seh_pushreg %rsi
	subq	$40, %rsp
	.seh_stackalloc 40
	leaq	32(%rdx), %rbp
	.seh_endprologue
	callq	__std_terminate
	int3
.Lfunc_end8:
	.seh_handlerdata
	.section	.text,"xr",discard,"??1?$basic_filebuf@DU?$char_traits@D@std@@@std@@UEAA@XZ"
	.seh_endproc
	.section	.xdata,"dr",associative,"??1?$basic_filebuf@DU?$char_traits@D@std@@@std@@UEAA@XZ"
	.p2align	2, 0x0
"$cppxdata$??1?$basic_filebuf@DU?$char_traits@D@std@@@std@@UEAA@XZ":
	.long	429065506                       # MagicNumber
	.long	1                               # MaxState
	.long	("$stateUnwindMap$??1?$basic_filebuf@DU?$char_traits@D@std@@@std@@UEAA@XZ")@IMGREL # UnwindMap
	.long	0                               # NumTryBlocks
	.long	0                               # TryBlockMap
	.long	3                               # IPMapEntries
	.long	("$ip2state$??1?$basic_filebuf@DU?$char_traits@D@std@@@std@@UEAA@XZ")@IMGREL # IPToStateXData
	.long	32                              # UnwindHelp
	.long	0                               # ESTypeList
	.long	1                               # EHFlags
"$stateUnwindMap$??1?$basic_filebuf@DU?$char_traits@D@std@@@std@@UEAA@XZ":
	.long	-1                              # ToState
	.long	"?dtor$14@?0???1?$basic_filebuf@DU?$char_traits@D@std@@@std@@UEAA@XZ@4HA"@IMGREL # Action
"$ip2state$??1?$basic_filebuf@DU?$char_traits@D@std@@@std@@UEAA@XZ":
	.long	.Lfunc_begin8@IMGREL            # IP
	.long	-1                              # ToState
	.long	.Ltmp166@IMGREL+1               # IP
	.long	0                               # ToState
	.long	.Ltmp167@IMGREL+1               # IP
	.long	-1                              # ToState
	.section	.text,"xr",discard,"??1?$basic_filebuf@DU?$char_traits@D@std@@@std@@UEAA@XZ"
                                        # -- End function
	.def	"??_E?$basic_fstream@DU?$char_traits@D@std@@@std@@$4PPPPPPPM@A@EAAPEAXI@Z";
	.scl	2;
	.type	32;
	.endef
	.section	.text,"xr",discard,"??_E?$basic_fstream@DU?$char_traits@D@std@@@std@@$4PPPPPPPM@A@EAAPEAXI@Z"
	.globl	"??_E?$basic_fstream@DU?$char_traits@D@std@@@std@@$4PPPPPPPM@A@EAAPEAXI@Z" # -- Begin function ??_E?$basic_fstream@DU?$char_traits@D@std@@@std@@$4PPPPPPPM@A@EAAPEAXI@Z
	.p2align	4, 0x90
"??_E?$basic_fstream@DU?$char_traits@D@std@@@std@@$4PPPPPPPM@A@EAAPEAXI@Z": # @"??_E?$basic_fstream@DU?$char_traits@D@std@@@std@@$4PPPPPPPM@A@EAAPEAXI@Z"
.Lfunc_begin9:
.seh_proc "??_E?$basic_fstream@DU?$char_traits@D@std@@@std@@$4PPPPPPPM@A@EAAPEAXI@Z"
	.seh_handler __CxxFrameHandler3, @unwind, @except
# %bb.0:
	pushq	%rbp
	.seh_pushreg %rbp
	pushq	%r14
	.seh_pushreg %r14
	pushq	%rsi
	.seh_pushreg %rsi
	pushq	%rdi
	.seh_pushreg %rdi
	pushq	%rbx
	.seh_pushreg %rbx
	subq	$48, %rsp
	.seh_stackalloc 48
	leaq	48(%rsp), %rbp
	.seh_setframe %rbp, 48
	.seh_endprologue
	movq	$-2, -8(%rbp)
	movq	%rcx, %rsi
	xorl	%eax, %eax
	subl	-4(%rcx), %eax
	movl	%edx, %edi
	movslq	%eax, %r14
	leaq	(%rcx,%r14), %rbx
	movq	-184(%rcx,%r14), %rax
	movslq	4(%rax), %rax
	leaq	"??_7?$basic_fstream@DU?$char_traits@D@std@@@std@@6B@"(%rip), %rcx
	movq	%rcx, -184(%rax,%rbx)
	movq	-184(%rsi,%r14), %rax
	movslq	4(%rax), %rax
	leal	-184(%rax), %ecx
	movl	%ecx, -188(%rax,%rbx)
	leaq	(%rsi,%r14), %rcx
	addq	$-160, %rcx
	callq	"??1?$basic_filebuf@DU?$char_traits@D@std@@@std@@UEAA@XZ"
	leaq	"??_7ios_base@std@@6B@"(%rip), %rax
	movq	%rax, (%rsi,%r14)
.Ltmp168:
	movq	%rbx, %rcx
	callq	"?_Ios_base_dtor@ios_base@std@@CAXPEAV12@@Z"
.Ltmp169:
# %bb.1:
	addq	%r14, %rsi
	addq	$-184, %rsi
	testl	%edi, %edi
	je	.LBB52_3
# %bb.2:
	movq	%rsi, %rcx
	callq	"??3@YAXPEAX@Z"
.LBB52_3:
	movq	%rsi, %rax
	addq	$48, %rsp
	popq	%rbx
	popq	%rdi
	popq	%rsi
	popq	%r14
	popq	%rbp
	retq
	.seh_handlerdata
	.long	("$cppxdata$??_E?$basic_fstream@DU?$char_traits@D@std@@@std@@$4PPPPPPPM@A@EAAPEAXI@Z")@IMGREL
	.section	.text,"xr",discard,"??_E?$basic_fstream@DU?$char_traits@D@std@@@std@@$4PPPPPPPM@A@EAAPEAXI@Z"
	.seh_endproc
	.def	"?dtor$4@?0???_E?$basic_fstream@DU?$char_traits@D@std@@@std@@$4PPPPPPPM@A@EAAPEAXI@Z@4HA";
	.scl	3;
	.type	32;
	.endef
	.p2align	4, 0x90
"?dtor$4@?0???_E?$basic_fstream@DU?$char_traits@D@std@@@std@@$4PPPPPPPM@A@EAAPEAXI@Z@4HA":
.seh_proc "?dtor$4@?0???_E?$basic_fstream@DU?$char_traits@D@std@@@std@@$4PPPPPPPM@A@EAAPEAXI@Z@4HA"
.LBB52_4:
	movq	%rdx, 16(%rsp)
	pushq	%rbp
	.seh_pushreg %rbp
	pushq	%r14
	.seh_pushreg %r14
	pushq	%rsi
	.seh_pushreg %rsi
	pushq	%rdi
	.seh_pushreg %rdi
	pushq	%rbx
	.seh_pushreg %rbx
	subq	$32, %rsp
	.seh_stackalloc 32
	leaq	48(%rdx), %rbp
	.seh_endprologue
	callq	__std_terminate
	int3
.Lfunc_end9:
	.seh_handlerdata
	.section	.text,"xr",discard,"??_E?$basic_fstream@DU?$char_traits@D@std@@@std@@$4PPPPPPPM@A@EAAPEAXI@Z"
	.seh_endproc
	.section	.xdata,"dr",associative,"??_E?$basic_fstream@DU?$char_traits@D@std@@@std@@$4PPPPPPPM@A@EAAPEAXI@Z"
	.p2align	2, 0x0
"$cppxdata$??_E?$basic_fstream@DU?$char_traits@D@std@@@std@@$4PPPPPPPM@A@EAAPEAXI@Z":
	.long	429065506                       # MagicNumber
	.long	1                               # MaxState
	.long	("$stateUnwindMap$??_E?$basic_fstream@DU?$char_traits@D@std@@@std@@$4PPPPPPPM@A@EAAPEAXI@Z")@IMGREL # UnwindMap
	.long	0                               # NumTryBlocks
	.long	0                               # TryBlockMap
	.long	3                               # IPMapEntries
	.long	("$ip2state$??_E?$basic_fstream@DU?$char_traits@D@std@@@std@@$4PPPPPPPM@A@EAAPEAXI@Z")@IMGREL # IPToStateXData
	.long	40                              # UnwindHelp
	.long	0                               # ESTypeList
	.long	1                               # EHFlags
"$stateUnwindMap$??_E?$basic_fstream@DU?$char_traits@D@std@@@std@@$4PPPPPPPM@A@EAAPEAXI@Z":
	.long	-1                              # ToState
	.long	"?dtor$4@?0???_E?$basic_fstream@DU?$char_traits@D@std@@@std@@$4PPPPPPPM@A@EAAPEAXI@Z@4HA"@IMGREL # Action
"$ip2state$??_E?$basic_fstream@DU?$char_traits@D@std@@@std@@$4PPPPPPPM@A@EAAPEAXI@Z":
	.long	.Lfunc_begin9@IMGREL            # IP
	.long	-1                              # ToState
	.long	.Ltmp168@IMGREL+1               # IP
	.long	0                               # ToState
	.long	.Ltmp169@IMGREL+1               # IP
	.long	-1                              # ToState
	.section	.text,"xr",discard,"??_E?$basic_fstream@DU?$char_traits@D@std@@@std@@$4PPPPPPPM@A@EAAPEAXI@Z"
                                        # -- End function
	.def	"??_G?$basic_filebuf@DU?$char_traits@D@std@@@std@@UEAAPEAXI@Z";
	.scl	2;
	.type	32;
	.endef
	.section	.text,"xr",discard,"??_G?$basic_filebuf@DU?$char_traits@D@std@@@std@@UEAAPEAXI@Z"
	.globl	"??_G?$basic_filebuf@DU?$char_traits@D@std@@@std@@UEAAPEAXI@Z" # -- Begin function ??_G?$basic_filebuf@DU?$char_traits@D@std@@@std@@UEAAPEAXI@Z
	.p2align	4, 0x90
"??_G?$basic_filebuf@DU?$char_traits@D@std@@@std@@UEAAPEAXI@Z": # @"??_G?$basic_filebuf@DU?$char_traits@D@std@@@std@@UEAAPEAXI@Z"
.seh_proc "??_G?$basic_filebuf@DU?$char_traits@D@std@@@std@@UEAAPEAXI@Z"
# %bb.0:
	pushq	%rsi
	.seh_pushreg %rsi
	pushq	%rdi
	.seh_pushreg %rdi
	subq	$40, %rsp
	.seh_stackalloc 40
	.seh_endprologue
	movl	%edx, %edi
	movq	%rcx, %rsi
	callq	"??1?$basic_filebuf@DU?$char_traits@D@std@@@std@@UEAA@XZ"
	testl	%edi, %edi
	je	.LBB53_2
# %bb.1:
	movq	%rsi, %rcx
	callq	"??3@YAXPEAX@Z"
.LBB53_2:
	movq	%rsi, %rax
	addq	$40, %rsp
	popq	%rdi
	popq	%rsi
	retq
	.seh_endproc
                                        # -- End function
	.def	"?_Lock@?$basic_filebuf@DU?$char_traits@D@std@@@std@@UEAAXXZ";
	.scl	2;
	.type	32;
	.endef
	.section	.text,"xr",discard,"?_Lock@?$basic_filebuf@DU?$char_traits@D@std@@@std@@UEAAXXZ"
	.globl	"?_Lock@?$basic_filebuf@DU?$char_traits@D@std@@@std@@UEAAXXZ" # -- Begin function ?_Lock@?$basic_filebuf@DU?$char_traits@D@std@@@std@@UEAAXXZ
	.p2align	4, 0x90
"?_Lock@?$basic_filebuf@DU?$char_traits@D@std@@@std@@UEAAXXZ": # @"?_Lock@?$basic_filebuf@DU?$char_traits@D@std@@@std@@UEAAXXZ"
# %bb.0:
	movq	128(%rcx), %rcx
	testq	%rcx, %rcx
	je	.LBB54_1
# %bb.2:
	jmp	_lock_file                      # TAILCALL
.LBB54_1:
	retq
                                        # -- End function
	.def	"?_Unlock@?$basic_filebuf@DU?$char_traits@D@std@@@std@@UEAAXXZ";
	.scl	2;
	.type	32;
	.endef
	.section	.text,"xr",discard,"?_Unlock@?$basic_filebuf@DU?$char_traits@D@std@@@std@@UEAAXXZ"
	.globl	"?_Unlock@?$basic_filebuf@DU?$char_traits@D@std@@@std@@UEAAXXZ" # -- Begin function ?_Unlock@?$basic_filebuf@DU?$char_traits@D@std@@@std@@UEAAXXZ
	.p2align	4, 0x90
"?_Unlock@?$basic_filebuf@DU?$char_traits@D@std@@@std@@UEAAXXZ": # @"?_Unlock@?$basic_filebuf@DU?$char_traits@D@std@@@std@@UEAAXXZ"
# %bb.0:
	movq	128(%rcx), %rcx
	testq	%rcx, %rcx
	je	.LBB55_1
# %bb.2:
	jmp	_unlock_file                    # TAILCALL
.LBB55_1:
	retq
                                        # -- End function
	.def	"?overflow@?$basic_filebuf@DU?$char_traits@D@std@@@std@@MEAAHH@Z";
	.scl	2;
	.type	32;
	.endef
	.section	.text,"xr",discard,"?overflow@?$basic_filebuf@DU?$char_traits@D@std@@@std@@MEAAHH@Z"
	.globl	"?overflow@?$basic_filebuf@DU?$char_traits@D@std@@@std@@MEAAHH@Z" # -- Begin function ?overflow@?$basic_filebuf@DU?$char_traits@D@std@@@std@@MEAAHH@Z
	.p2align	4, 0x90
"?overflow@?$basic_filebuf@DU?$char_traits@D@std@@@std@@MEAAHH@Z": # @"?overflow@?$basic_filebuf@DU?$char_traits@D@std@@@std@@MEAAHH@Z"
.seh_proc "?overflow@?$basic_filebuf@DU?$char_traits@D@std@@@std@@MEAAHH@Z"
# %bb.0:
	pushq	%r15
	.seh_pushreg %r15
	pushq	%r14
	.seh_pushreg %r14
	pushq	%rsi
	.seh_pushreg %rsi
	pushq	%rdi
	.seh_pushreg %rdi
	pushq	%rbp
	.seh_pushreg %rbp
	pushq	%rbx
	.seh_pushreg %rbx
	subq	$136, %rsp
	.seh_stackalloc 136
	.seh_endprologue
	cmpl	$-1, %edx
	je	.LBB56_1
# %bb.2:
	movl	%edx, %esi
	movq	%rcx, %rdi
	movq	64(%rcx), %rax
	movq	(%rax), %rcx
	testq	%rcx, %rcx
	je	.LBB56_5
# %bb.3:
	movq	88(%rdi), %rdx
	movl	(%rdx), %r8d
	testl	%r8d, %r8d
	jle	.LBB56_5
# %bb.4:
	decl	%r8d
	movl	%r8d, (%rdx)
	leaq	1(%rcx), %rdx
	movq	%rdx, (%rax)
	movb	%sil, (%rcx)
	jmp	.LBB56_19
.LBB56_5:
	cmpq	$0, 128(%rdi)
	je	.LBB56_6
# %bb.7:
	movq	24(%rdi), %rax
	leaq	112(%rdi), %rcx
	cmpq	%rcx, (%rax)
	jne	.LBB56_9
# %bb.8:
	movl	144(%rdi), %ecx
	movq	136(%rdi), %rdx
	movq	%rdx, (%rax)
	movq	56(%rdi), %rax
	movq	%rdx, (%rax)
	subl	%edx, %ecx
	movq	80(%rdi), %rax
	movl	%ecx, (%rax)
.LBB56_9:
	movq	104(%rdi), %rcx
	testq	%rcx, %rcx
	je	.LBB56_10
# %bb.11:
	movb	%sil, 79(%rsp)
	leaq	128(%rsp), %rax
	leaq	80(%rsp), %r9
	leaq	116(%rdi), %rdx
	movq	(%rcx), %r10
	leaq	80(%rsp), %r8
	movq	%r8, 56(%rsp)
	movq	%rax, 48(%rsp)
	leaq	96(%rsp), %r14
	movq	%r14, 40(%rsp)
	leaq	88(%rsp), %rax
	movq	%rax, 32(%rsp)
	leaq	79(%rsp), %rbx
	movq	%rbx, %r8
	callq	*56(%r10)
	movl	$-1, %ebp
	cmpl	$2, %eax
	jae	.LBB56_12
# %bb.14:
	movq	80(%rsp), %r15
	subq	%r14, %r15
	je	.LBB56_16
# %bb.15:
	movq	128(%rdi), %r9
	movl	$1, %edx
	movq	%r14, %rcx
	movq	%r15, %r8
	callq	fwrite
	cmpq	%rax, %r15
	jne	.LBB56_18
.LBB56_16:
	movb	$1, 113(%rdi)
	cmpq	%rbx, 88(%rsp)
	movl	$-1, %eax
	jmp	.LBB56_17
.LBB56_1:
	xorl	%esi, %esi
	jmp	.LBB56_19
.LBB56_6:
	movl	$-1, %esi
	jmp	.LBB56_19
.LBB56_10:
	movq	128(%rdi), %rdx
	movsbl	%sil, %ecx
	callq	fputc
	cmpl	$-1, %eax
	cmovel	%eax, %esi
	jmp	.LBB56_19
.LBB56_12:
	cmpl	$3, %eax
	jne	.LBB56_18
# %bb.13:
	movq	128(%rdi), %rdx
	movsbl	79(%rsp), %ecx
	callq	fputc
	cmpl	$-1, %eax
.LBB56_17:
	cmovel	%eax, %esi
	movl	%esi, %ebp
.LBB56_18:
	movl	%ebp, %esi
.LBB56_19:
	movl	%esi, %eax
	addq	$136, %rsp
	popq	%rbx
	popq	%rbp
	popq	%rdi
	popq	%rsi
	popq	%r14
	popq	%r15
	retq
	.seh_endproc
                                        # -- End function
	.def	"?pbackfail@?$basic_filebuf@DU?$char_traits@D@std@@@std@@MEAAHH@Z";
	.scl	2;
	.type	32;
	.endef
	.section	.text,"xr",discard,"?pbackfail@?$basic_filebuf@DU?$char_traits@D@std@@@std@@MEAAHH@Z"
	.globl	"?pbackfail@?$basic_filebuf@DU?$char_traits@D@std@@@std@@MEAAHH@Z" # -- Begin function ?pbackfail@?$basic_filebuf@DU?$char_traits@D@std@@@std@@MEAAHH@Z
	.p2align	4, 0x90
"?pbackfail@?$basic_filebuf@DU?$char_traits@D@std@@@std@@MEAAHH@Z": # @"?pbackfail@?$basic_filebuf@DU?$char_traits@D@std@@@std@@MEAAHH@Z"
.seh_proc "?pbackfail@?$basic_filebuf@DU?$char_traits@D@std@@@std@@MEAAHH@Z"
# %bb.0:
	pushq	%rsi
	.seh_pushreg %rsi
	pushq	%rdi
	.seh_pushreg %rdi
	pushq	%rbx
	.seh_pushreg %rbx
	subq	$32, %rsp
	.seh_stackalloc 32
	.seh_endprologue
	movl	%edx, %esi
	movq	%rcx, %rdi
	movq	56(%rcx), %rax
	movq	(%rax), %rcx
	testq	%rcx, %rcx
	je	.LBB57_6
# %bb.1:
	movq	24(%rdi), %rdx
	cmpq	%rcx, (%rdx)
	jae	.LBB57_6
# %bb.2:
	cmpl	$-1, %esi
	je	.LBB57_3
# %bb.4:
	movzbl	-1(%rcx), %edx
	cmpl	%esi, %edx
	je	.LBB57_5
.LBB57_6:
	movl	$-1, %ebx
	cmpl	$-1, %esi
	je	.LBB57_15
# %bb.7:
	movq	128(%rdi), %rdx
	testq	%rdx, %rdx
	je	.LBB57_15
# %bb.8:
	cmpq	$0, 104(%rdi)
	je	.LBB57_9
.LBB57_10:
	movq	56(%rdi), %rcx
	leaq	112(%rdi), %rax
	cmpq	%rax, (%rcx)
	je	.LBB57_15
# %bb.11:
	movb	%sil, 112(%rdi)
	movq	24(%rdi), %rdx
	movq	(%rdx), %r8
	cmpq	%rax, %r8
	je	.LBB57_13
# %bb.12:
	movq	%r8, 136(%rdi)
	movq	80(%rdi), %r8
	movslq	(%r8), %r8
	addq	(%rcx), %r8
	movq	%r8, 144(%rdi)
.LBB57_13:
	movq	%rax, (%rdx)
	movq	56(%rdi), %rcx
	movq	%rax, (%rcx)
	movq	80(%rdi), %rax
	movl	$1, (%rax)
	jmp	.LBB57_14
.LBB57_9:
	movzbl	%sil, %ecx
	callq	ungetc
	cmpl	$-1, %eax
	jne	.LBB57_14
	jmp	.LBB57_10
.LBB57_3:
	xorl	%esi, %esi
.LBB57_5:
	movq	80(%rdi), %rdx
	incl	(%rdx)
	decq	%rcx
	movq	%rcx, (%rax)
.LBB57_14:
	movl	%esi, %ebx
.LBB57_15:
	movl	%ebx, %eax
	addq	$32, %rsp
	popq	%rbx
	popq	%rdi
	popq	%rsi
	retq
	.seh_endproc
                                        # -- End function
	.def	"?showmanyc@?$basic_streambuf@DU?$char_traits@D@std@@@std@@MEAA_JXZ";
	.scl	2;
	.type	32;
	.endef
	.section	.text,"xr",discard,"?showmanyc@?$basic_streambuf@DU?$char_traits@D@std@@@std@@MEAA_JXZ"
	.globl	"?showmanyc@?$basic_streambuf@DU?$char_traits@D@std@@@std@@MEAA_JXZ" # -- Begin function ?showmanyc@?$basic_streambuf@DU?$char_traits@D@std@@@std@@MEAA_JXZ
	.p2align	4, 0x90
"?showmanyc@?$basic_streambuf@DU?$char_traits@D@std@@@std@@MEAA_JXZ": # @"?showmanyc@?$basic_streambuf@DU?$char_traits@D@std@@@std@@MEAA_JXZ"
# %bb.0:
	xorl	%eax, %eax
	retq
                                        # -- End function
	.def	"?underflow@?$basic_filebuf@DU?$char_traits@D@std@@@std@@MEAAHXZ";
	.scl	2;
	.type	32;
	.endef
	.section	.text,"xr",discard,"?underflow@?$basic_filebuf@DU?$char_traits@D@std@@@std@@MEAAHXZ"
	.globl	"?underflow@?$basic_filebuf@DU?$char_traits@D@std@@@std@@MEAAHXZ" # -- Begin function ?underflow@?$basic_filebuf@DU?$char_traits@D@std@@@std@@MEAAHXZ
	.p2align	4, 0x90
"?underflow@?$basic_filebuf@DU?$char_traits@D@std@@@std@@MEAAHXZ": # @"?underflow@?$basic_filebuf@DU?$char_traits@D@std@@@std@@MEAAHXZ"
.seh_proc "?underflow@?$basic_filebuf@DU?$char_traits@D@std@@@std@@MEAAHXZ"
# %bb.0:
	pushq	%rsi
	.seh_pushreg %rsi
	pushq	%rdi
	.seh_pushreg %rdi
	subq	$40, %rsp
	.seh_stackalloc 40
	.seh_endprologue
	movq	%rcx, %rsi
	movq	56(%rcx), %rax
	movq	(%rax), %rax
	testq	%rax, %rax
	je	.LBB59_3
# %bb.1:
	movq	80(%rsi), %rcx
	cmpl	$0, (%rcx)
	jle	.LBB59_3
# %bb.2:
	movzbl	(%rax), %edi
	jmp	.LBB59_5
.LBB59_3:
	movq	(%rsi), %rax
	movq	%rsi, %rcx
	callq	*56(%rax)
	movl	%eax, %edi
	cmpl	$-1, %eax
	je	.LBB59_5
# %bb.4:
	movq	(%rsi), %rax
	movq	%rsi, %rcx
	movl	%edi, %edx
	callq	*32(%rax)
.LBB59_5:
	movl	%edi, %eax
	addq	$40, %rsp
	popq	%rdi
	popq	%rsi
	retq
	.seh_endproc
                                        # -- End function
	.def	"?uflow@?$basic_filebuf@DU?$char_traits@D@std@@@std@@MEAAHXZ";
	.scl	2;
	.type	32;
	.endef
	.section	.text,"xr",discard,"?uflow@?$basic_filebuf@DU?$char_traits@D@std@@@std@@MEAAHXZ"
	.globl	"?uflow@?$basic_filebuf@DU?$char_traits@D@std@@@std@@MEAAHXZ" # -- Begin function ?uflow@?$basic_filebuf@DU?$char_traits@D@std@@@std@@MEAAHXZ
	.p2align	4, 0x90
"?uflow@?$basic_filebuf@DU?$char_traits@D@std@@@std@@MEAAHXZ": # @"?uflow@?$basic_filebuf@DU?$char_traits@D@std@@@std@@MEAAHXZ"
.Lfunc_begin10:
.seh_proc "?uflow@?$basic_filebuf@DU?$char_traits@D@std@@@std@@MEAAHXZ"
	.seh_handler __CxxFrameHandler3, @unwind, @except
# %bb.0:
	pushq	%rbp
	.seh_pushreg %rbp
	pushq	%r15
	.seh_pushreg %r15
	pushq	%r14
	.seh_pushreg %r14
	pushq	%r13
	.seh_pushreg %r13
	pushq	%r12
	.seh_pushreg %r12
	pushq	%rsi
	.seh_pushreg %rsi
	pushq	%rdi
	.seh_pushreg %rdi
	pushq	%rbx
	.seh_pushreg %rbx
	subq	$136, %rsp
	.seh_stackalloc 136
	leaq	128(%rsp), %rbp
	.seh_setframe %rbp, 128
	.seh_endprologue
	movq	$-2, (%rbp)
	movq	%rcx, %rsi
	movq	56(%rcx), %rax
	movq	(%rax), %rcx
	testq	%rcx, %rcx
	je	.LBB60_3
# %bb.1:
	movq	80(%rsi), %rdx
	movl	(%rdx), %r8d
	testl	%r8d, %r8d
	jle	.LBB60_3
# %bb.2:
	decl	%r8d
	movl	%r8d, (%rdx)
	leaq	1(%rcx), %rdx
	movq	%rdx, (%rax)
	movzbl	(%rcx), %r14d
	jmp	.LBB60_44
.LBB60_3:
	cmpq	$0, 128(%rsi)
	je	.LBB60_4
# %bb.5:
	movq	24(%rsi), %rax
	leaq	112(%rsi), %rcx
	cmpq	%rcx, (%rax)
	je	.LBB60_6
# %bb.7:
	cmpq	$0, 104(%rsi)
	je	.LBB60_8
.LBB60_9:
	movq	$0, -40(%rbp)
	xorps	%xmm0, %xmm0
	movups	%xmm0, -24(%rbp)
	movq	$15, -16(%rbp)
	movb	$0, -40(%rbp)
	leaq	116(%rsi), %rdi
	leaq	-40(%rbp), %rbx
	leaq	-1(%rbp), %r13
	leaq	-48(%rbp), %r15
                                        # implicit-def: $r14d
	jmp	.LBB60_10
	.p2align	4, 0x90
.LBB60_11:                              #   in Loop: Header=BB60_10 Depth=1
	movl	$1, %r12d
	movl	$-1, %r14d
.LBB60_35:                              #   in Loop: Header=BB60_10 Depth=1
	testl	%r12d, %r12d
	jne	.LBB60_36
.LBB60_10:                              # =>This Loop Header: Depth=1
                                        #     Child Loop BB60_30 Depth 2
	movq	128(%rsi), %rcx
	callq	fgetc
	cmpl	$-1, %eax
	je	.LBB60_11
# %bb.12:                               #   in Loop: Header=BB60_10 Depth=1
	movq	-24(%rbp), %rcx
	movq	-16(%rbp), %rdx
	cmpq	%rdx, %rcx
	jae	.LBB60_16
# %bb.13:                               #   in Loop: Header=BB60_10 Depth=1
	leaq	1(%rcx), %r8
	movq	%r8, -24(%rbp)
	movq	%rbx, %r8
	cmpq	$16, %rdx
	jb	.LBB60_15
# %bb.14:                               #   in Loop: Header=BB60_10 Depth=1
	movq	-40(%rbp), %r8
.LBB60_15:                              #   in Loop: Header=BB60_10 Depth=1
	movb	%al, (%r8,%rcx)
	movb	$0, 1(%r8,%rcx)
	jmp	.LBB60_17
	.p2align	4, 0x90
.LBB60_16:                              #   in Loop: Header=BB60_10 Depth=1
.Ltmp170:
	movl	$1, %edx
	movq	%rbx, %rcx
	movl	%eax, %r9d
	callq	"??$_Reallocate_grow_by@V<lambda_1>@?0??push_back@?$basic_string@DU?$char_traits@D@std@@V?$allocator@D@2@@std@@QEAAXD@Z@D@?$basic_string@DU?$char_traits@D@std@@V?$allocator@D@2@@std@@AEAAAEAV01@_KV<lambda_1>@?0??push_back@01@QEAAXD@Z@D@Z"
.Ltmp171:
.LBB60_17:                              #   in Loop: Header=BB60_10 Depth=1
	movq	104(%rsi), %rcx
	cmpq	$16, -16(%rbp)
	movq	%rbx, %r8
	jb	.LBB60_19
# %bb.18:                               #   in Loop: Header=BB60_10 Depth=1
	movq	-40(%rbp), %r8
.LBB60_19:                              #   in Loop: Header=BB60_10 Depth=1
	movq	-24(%rbp), %r9
	addq	%r8, %r9
	movq	(%rcx), %rax
	movq	48(%rax), %rax
.Ltmp172:
	leaq	-56(%rbp), %rdx
	movq	%rdx, 56(%rsp)
	leaq	(%rbp), %rdx
	movq	%rdx, 48(%rsp)
	movq	%r13, 40(%rsp)
	movq	%r15, 32(%rsp)
	movq	%rdi, %rdx
	callq	*%rax
.Ltmp173:
# %bb.20:                               #   in Loop: Header=BB60_10 Depth=1
	movl	$1, %r12d
	cmpl	$2, %eax
	jae	.LBB60_21
# %bb.25:                               #   in Loop: Header=BB60_10 Depth=1
	cmpq	%r13, -56(%rbp)
	je	.LBB60_32
# %bb.26:                               #   in Loop: Header=BB60_10 Depth=1
	cmpq	$16, -16(%rbp)
	movq	%rbx, %r14
	jb	.LBB60_28
# %bb.27:                               #   in Loop: Header=BB60_10 Depth=1
	movq	-40(%rbp), %r14
.LBB60_28:                              #   in Loop: Header=BB60_10 Depth=1
	addq	-24(%rbp), %r14
	subq	-48(%rbp), %r14
	testq	%r14, %r14
	jle	.LBB60_31
# %bb.29:                               #   in Loop: Header=BB60_10 Depth=1
	incq	%r14
	.p2align	4, 0x90
.LBB60_30:                              #   Parent Loop BB60_10 Depth=1
                                        # =>  This Inner Loop Header: Depth=2
	movq	128(%rsi), %rdx
	movq	-48(%rbp), %rax
	movsbl	-2(%rax,%r14), %ecx
	callq	ungetc
	decq	%r14
	cmpq	$1, %r14
	jg	.LBB60_30
.LBB60_31:                              #   in Loop: Header=BB60_10 Depth=1
	movzbl	-1(%rbp), %r14d
	jmp	.LBB60_35
	.p2align	4, 0x90
.LBB60_21:                              #   in Loop: Header=BB60_10 Depth=1
	movl	$-1, %r14d
	cmpl	$3, %eax
	jne	.LBB60_35
# %bb.22:                               #   in Loop: Header=BB60_10 Depth=1
	cmpq	$16, -16(%rbp)
	movq	%rbx, %rax
	jb	.LBB60_24
# %bb.23:                               #   in Loop: Header=BB60_10 Depth=1
	movq	-40(%rbp), %rax
.LBB60_24:                              #   in Loop: Header=BB60_10 Depth=1
	movsbl	(%rax), %r14d
	jmp	.LBB60_35
.LBB60_32:                              #   in Loop: Header=BB60_10 Depth=1
	cmpq	$16, -16(%rbp)
	movq	%rbx, %rcx
	jb	.LBB60_34
# %bb.33:                               #   in Loop: Header=BB60_10 Depth=1
	movq	-40(%rbp), %rcx
.LBB60_34:                              #   in Loop: Header=BB60_10 Depth=1
	movq	-48(%rbp), %rdx
	movq	-24(%rbp), %r8
	subq	%rcx, %rdx
	cmpq	%rdx, %r8
	cmovbq	%r8, %rdx
	subq	%rdx, %r8
	movq	%r8, -24(%rbp)
	incq	%r8
	addq	%rcx, %rdx
	callq	memmove
	xorl	%r12d, %r12d
	jmp	.LBB60_35
.LBB60_36:
	movq	-16(%rbp), %rax
	cmpq	$16, %rax
	jb	.LBB60_44
# %bb.37:
	movq	-40(%rbp), %rcx
	leaq	1(%rax), %rdx
	cmpq	$4096, %rdx                     # imm = 0x1000
	jb	.LBB60_43
# %bb.38:
	movq	-8(%rcx), %r8
	addq	$-8, %rcx
	subq	%r8, %rcx
	cmpq	$32, %rcx
	jae	.LBB60_39
# %bb.42:
	addq	$40, %rax
	movq	%rax, %rdx
	movq	%r8, %rcx
.LBB60_43:
	callq	"??3@YAXPEAX_K@Z"
	jmp	.LBB60_44
.LBB60_4:
	movl	$-1, %r14d
	jmp	.LBB60_44
.LBB60_6:
	movl	144(%rsi), %ecx
	movq	136(%rsi), %rdx
	movq	%rdx, (%rax)
	movq	56(%rsi), %rax
	movq	%rdx, (%rax)
	subl	%edx, %ecx
	movq	80(%rsi), %rax
	movl	%ecx, (%rax)
	cmpq	$0, 104(%rsi)
	jne	.LBB60_9
.LBB60_8:
	movq	128(%rsi), %rcx
	callq	fgetc
	cmpl	$-1, %eax
	movzbl	%al, %r14d
	cmovel	%eax, %r14d
.LBB60_44:
	movl	%r14d, %eax
	addq	$136, %rsp
	popq	%rbx
	popq	%rdi
	popq	%rsi
	popq	%r12
	popq	%r13
	popq	%r14
	popq	%r15
	popq	%rbp
	retq
.LBB60_39:
.Ltmp174:
	callq	_invalid_parameter_noinfo_noreturn
.Ltmp175:
# %bb.40:
	int3
	.seh_handlerdata
	.long	("$cppxdata$?uflow@?$basic_filebuf@DU?$char_traits@D@std@@@std@@MEAAHXZ")@IMGREL
	.section	.text,"xr",discard,"?uflow@?$basic_filebuf@DU?$char_traits@D@std@@@std@@MEAAHXZ"
	.seh_endproc
	.def	"?dtor$41@?0??uflow@?$basic_filebuf@DU?$char_traits@D@std@@@std@@MEAAHXZ@4HA";
	.scl	3;
	.type	32;
	.endef
	.p2align	4, 0x90
"?dtor$41@?0??uflow@?$basic_filebuf@DU?$char_traits@D@std@@@std@@MEAAHXZ@4HA":
.seh_proc "?dtor$41@?0??uflow@?$basic_filebuf@DU?$char_traits@D@std@@@std@@MEAAHXZ@4HA"
.LBB60_41:
	movq	%rdx, 16(%rsp)
	pushq	%rbp
	.seh_pushreg %rbp
	pushq	%r15
	.seh_pushreg %r15
	pushq	%r14
	.seh_pushreg %r14
	pushq	%r13
	.seh_pushreg %r13
	pushq	%r12
	.seh_pushreg %r12
	pushq	%rsi
	.seh_pushreg %rsi
	pushq	%rdi
	.seh_pushreg %rdi
	pushq	%rbx
	.seh_pushreg %rbx
	subq	$72, %rsp
	.seh_stackalloc 72
	leaq	128(%rdx), %rbp
	.seh_endprologue
	callq	__std_terminate
	int3
	.seh_handlerdata
	.section	.text,"xr",discard,"?uflow@?$basic_filebuf@DU?$char_traits@D@std@@@std@@MEAAHXZ"
	.seh_endproc
	.def	"?dtor$45@?0??uflow@?$basic_filebuf@DU?$char_traits@D@std@@@std@@MEAAHXZ@4HA";
	.scl	3;
	.type	32;
	.endef
	.p2align	4, 0x90
"?dtor$45@?0??uflow@?$basic_filebuf@DU?$char_traits@D@std@@@std@@MEAAHXZ@4HA":
.seh_proc "?dtor$45@?0??uflow@?$basic_filebuf@DU?$char_traits@D@std@@@std@@MEAAHXZ@4HA"
.LBB60_45:
	movq	%rdx, 16(%rsp)
	pushq	%rbp
	.seh_pushreg %rbp
	pushq	%r15
	.seh_pushreg %r15
	pushq	%r14
	.seh_pushreg %r14
	pushq	%r13
	.seh_pushreg %r13
	pushq	%r12
	.seh_pushreg %r12
	pushq	%rsi
	.seh_pushreg %rsi
	pushq	%rdi
	.seh_pushreg %rdi
	pushq	%rbx
	.seh_pushreg %rbx
	subq	$72, %rsp
	.seh_stackalloc 72
	leaq	128(%rdx), %rbp
	.seh_endprologue
	leaq	-40(%rbp), %rcx
	callq	"??1?$basic_string@DU?$char_traits@D@std@@V?$allocator@D@2@@std@@QEAA@XZ"
	nop
	addq	$72, %rsp
	popq	%rbx
	popq	%rdi
	popq	%rsi
	popq	%r12
	popq	%r13
	popq	%r14
	popq	%r15
	popq	%rbp
	retq                                    # CLEANUPRET
.Lfunc_end10:
	.seh_handlerdata
	.section	.text,"xr",discard,"?uflow@?$basic_filebuf@DU?$char_traits@D@std@@@std@@MEAAHXZ"
	.seh_endproc
	.section	.xdata,"dr",associative,"?uflow@?$basic_filebuf@DU?$char_traits@D@std@@@std@@MEAAHXZ"
	.p2align	2, 0x0
"$cppxdata$?uflow@?$basic_filebuf@DU?$char_traits@D@std@@@std@@MEAAHXZ":
	.long	429065506                       # MagicNumber
	.long	2                               # MaxState
	.long	("$stateUnwindMap$?uflow@?$basic_filebuf@DU?$char_traits@D@std@@@std@@MEAAHXZ")@IMGREL # UnwindMap
	.long	0                               # NumTryBlocks
	.long	0                               # TryBlockMap
	.long	5                               # IPMapEntries
	.long	("$ip2state$?uflow@?$basic_filebuf@DU?$char_traits@D@std@@@std@@MEAAHXZ")@IMGREL # IPToStateXData
	.long	128                             # UnwindHelp
	.long	0                               # ESTypeList
	.long	1                               # EHFlags
"$stateUnwindMap$?uflow@?$basic_filebuf@DU?$char_traits@D@std@@@std@@MEAAHXZ":
	.long	-1                              # ToState
	.long	"?dtor$45@?0??uflow@?$basic_filebuf@DU?$char_traits@D@std@@@std@@MEAAHXZ@4HA"@IMGREL # Action
	.long	-1                              # ToState
	.long	"?dtor$41@?0??uflow@?$basic_filebuf@DU?$char_traits@D@std@@@std@@MEAAHXZ@4HA"@IMGREL # Action
"$ip2state$?uflow@?$basic_filebuf@DU?$char_traits@D@std@@@std@@MEAAHXZ":
	.long	.Lfunc_begin10@IMGREL           # IP
	.long	-1                              # ToState
	.long	.Ltmp170@IMGREL+1               # IP
	.long	0                               # ToState
	.long	.Ltmp173@IMGREL+1               # IP
	.long	-1                              # ToState
	.long	.Ltmp174@IMGREL+1               # IP
	.long	1                               # ToState
	.long	.Ltmp175@IMGREL+1               # IP
	.long	-1                              # ToState
	.section	.text,"xr",discard,"?uflow@?$basic_filebuf@DU?$char_traits@D@std@@@std@@MEAAHXZ"
                                        # -- End function
	.def	"?xsgetn@?$basic_filebuf@DU?$char_traits@D@std@@@std@@MEAA_JPEAD_J@Z";
	.scl	2;
	.type	32;
	.endef
	.section	.text,"xr",discard,"?xsgetn@?$basic_filebuf@DU?$char_traits@D@std@@@std@@MEAA_JPEAD_J@Z"
	.globl	"?xsgetn@?$basic_filebuf@DU?$char_traits@D@std@@@std@@MEAA_JPEAD_J@Z" # -- Begin function ?xsgetn@?$basic_filebuf@DU?$char_traits@D@std@@@std@@MEAA_JPEAD_J@Z
	.p2align	4, 0x90
"?xsgetn@?$basic_filebuf@DU?$char_traits@D@std@@@std@@MEAA_JPEAD_J@Z": # @"?xsgetn@?$basic_filebuf@DU?$char_traits@D@std@@@std@@MEAA_JPEAD_J@Z"
.seh_proc "?xsgetn@?$basic_filebuf@DU?$char_traits@D@std@@@std@@MEAA_JPEAD_J@Z"
# %bb.0:
	pushq	%r15
	.seh_pushreg %r15
	pushq	%r14
	.seh_pushreg %r14
	pushq	%rsi
	.seh_pushreg %rsi
	pushq	%rdi
	.seh_pushreg %rdi
	pushq	%rbx
	.seh_pushreg %rbx
	subq	$32, %rsp
	.seh_stackalloc 32
	.seh_endprologue
	testq	%r8, %r8
	jle	.LBB61_1
# %bb.2:
	movq	%r8, %rsi
	movq	%rdx, %rdi
	movq	%rcx, %rbx
	cmpq	$0, 104(%rcx)
	je	.LBB61_17
# %bb.3:
	movq	%rsi, %r15
	jmp	.LBB61_4
	.p2align	4, 0x90
.LBB61_9:                               #   in Loop: Header=BB61_4 Depth=1
	cmpq	%r14, %r15
	cmovlq	%r15, %r14
	movq	%rdi, %rcx
	movq	%r14, %r8
	callq	memcpy
	addq	%r14, %rdi
	subq	%r14, %r15
	movq	80(%rbx), %rax
	subl	%r14d, (%rax)
	movq	56(%rbx), %rax
	movslq	%r14d, %rcx
	addq	%rcx, (%rax)
.LBB61_14:                              #   in Loop: Header=BB61_4 Depth=1
	xorl	%ecx, %ecx
.LBB61_15:                              #   in Loop: Header=BB61_4 Depth=1
	testl	%ecx, %ecx
	jne	.LBB61_16
.LBB61_4:                               # =>This Inner Loop Header: Depth=1
	testq	%r15, %r15
	jle	.LBB61_16
# %bb.5:                                #   in Loop: Header=BB61_4 Depth=1
	movq	56(%rbx), %rax
	movq	(%rax), %rdx
	testq	%rdx, %rdx
	je	.LBB61_6
# %bb.7:                                #   in Loop: Header=BB61_4 Depth=1
	movq	80(%rbx), %rax
	movslq	(%rax), %r14
	testq	%r14, %r14
	jg	.LBB61_9
	jmp	.LBB61_10
	.p2align	4, 0x90
.LBB61_6:                               #   in Loop: Header=BB61_4 Depth=1
	xorl	%r14d, %r14d
	testq	%r14, %r14
	jg	.LBB61_9
.LBB61_10:                              #   in Loop: Header=BB61_4 Depth=1
	movq	(%rbx), %rax
	movq	%rbx, %rcx
	callq	*56(%rax)
	cmpl	$-1, %eax
	je	.LBB61_11
# %bb.12:                               #   in Loop: Header=BB61_4 Depth=1
	movb	%al, (%rdi)
	incq	%rdi
	decq	%r15
	xorl	%ecx, %ecx
	cmpl	$-1, %eax
	jne	.LBB61_14
	jmp	.LBB61_15
.LBB61_11:                              #   in Loop: Header=BB61_4 Depth=1
	movl	$3, %ecx
	cmpl	$-1, %eax
	jne	.LBB61_14
	jmp	.LBB61_15
.LBB61_16:
	subq	%r15, %rsi
	jmp	.LBB61_34
.LBB61_1:
	xorl	%r14d, %r14d
	jmp	.LBB61_35
.LBB61_17:
	movq	56(%rbx), %rax
	movq	(%rax), %rdx
	testq	%rdx, %rdx
	je	.LBB61_18
# %bb.19:
	movq	80(%rbx), %rax
	movslq	(%rax), %r14
	testq	%r14, %r14
	je	.LBB61_21
.LBB61_22:
	cmpq	%rsi, %r14
	cmovaeq	%rsi, %r14
	movq	%rdi, %rcx
	movq	%r14, %r8
	callq	memcpy
	addq	%r14, %rdi
	movq	%rsi, %rcx
	subq	%r14, %rcx
	movq	80(%rbx), %rax
	subl	%r14d, (%rax)
	movq	56(%rbx), %rax
	movslq	%r14d, %rdx
	addq	%rdx, (%rax)
	cmpq	$0, 128(%rbx)
	jne	.LBB61_24
	jmp	.LBB61_33
.LBB61_18:
	xorl	%r14d, %r14d
	testq	%r14, %r14
	jne	.LBB61_22
.LBB61_21:
	movq	%rsi, %rcx
	cmpq	$0, 128(%rbx)
	je	.LBB61_33
.LBB61_24:
	movq	24(%rbx), %rax
	leaq	112(%rbx), %rdx
	cmpq	%rdx, (%rax)
	jne	.LBB61_26
# %bb.25:
	movl	144(%rbx), %edx
	movq	136(%rbx), %r8
	movq	%r8, (%rax)
	movq	56(%rbx), %rax
	movq	%r8, (%rax)
	subl	%r8d, %edx
	movq	80(%rbx), %rax
	movl	%edx, (%rax)
.LBB61_26:
                                        # implicit-def: $r14
	.p2align	4, 0x90
.LBB61_27:                              # =>This Inner Loop Header: Depth=1
	movq	%rcx, %r15
	cmpq	$4096, %rcx                     # imm = 0x1000
	jb	.LBB61_29
# %bb.28:                               #   in Loop: Header=BB61_27 Depth=1
	movq	128(%rbx), %r9
	movl	$1, %edx
	movl	$4095, %r8d                     # imm = 0xFFF
	movq	%rdi, %rcx
	callq	fread
	addq	%rax, %rdi
	movq	%r15, %rcx
	subq	%rax, %rcx
	movq	%rsi, %rdx
	subq	%rcx, %rdx
	cmpq	$4095, %rax                     # imm = 0xFFF
	cmovneq	%rdx, %r14
	je	.LBB61_27
	jmp	.LBB61_32
.LBB61_29:
	testq	%r15, %r15
	je	.LBB61_30
# %bb.31:
	movq	128(%rbx), %r9
	movl	$1, %edx
	movq	%rdi, %rcx
	movq	%r15, %r8
	callq	fread
	movq	%r15, %rcx
	subq	%rax, %rcx
.LBB61_32:
	cmpq	$4095, %r15                     # imm = 0xFFF
	ja	.LBB61_35
.LBB61_33:
	subq	%rcx, %rsi
.LBB61_34:
	movq	%rsi, %r14
.LBB61_35:
	movq	%r14, %rax
	addq	$32, %rsp
	popq	%rbx
	popq	%rdi
	popq	%rsi
	popq	%r14
	popq	%r15
	retq
.LBB61_30:
	movq	%r15, %rcx
	cmpq	$4095, %r15                     # imm = 0xFFF
	jbe	.LBB61_33
	jmp	.LBB61_35
	.seh_endproc
                                        # -- End function
	.def	"?xsputn@?$basic_filebuf@DU?$char_traits@D@std@@@std@@MEAA_JPEBD_J@Z";
	.scl	2;
	.type	32;
	.endef
	.section	.text,"xr",discard,"?xsputn@?$basic_filebuf@DU?$char_traits@D@std@@@std@@MEAA_JPEBD_J@Z"
	.globl	"?xsputn@?$basic_filebuf@DU?$char_traits@D@std@@@std@@MEAA_JPEBD_J@Z" # -- Begin function ?xsputn@?$basic_filebuf@DU?$char_traits@D@std@@@std@@MEAA_JPEBD_J@Z
	.p2align	4, 0x90
"?xsputn@?$basic_filebuf@DU?$char_traits@D@std@@@std@@MEAA_JPEBD_J@Z": # @"?xsputn@?$basic_filebuf@DU?$char_traits@D@std@@@std@@MEAA_JPEBD_J@Z"
.seh_proc "?xsputn@?$basic_filebuf@DU?$char_traits@D@std@@@std@@MEAA_JPEBD_J@Z"
# %bb.0:
	pushq	%r15
	.seh_pushreg %r15
	pushq	%r14
	.seh_pushreg %r14
	pushq	%rsi
	.seh_pushreg %rsi
	pushq	%rdi
	.seh_pushreg %rdi
	pushq	%rbx
	.seh_pushreg %rbx
	subq	$32, %rsp
	.seh_stackalloc 32
	.seh_endprologue
	movq	%r8, %rsi
	movq	%rdx, %rdi
	movq	%rcx, %rbx
	cmpq	$0, 104(%rcx)
	je	.LBB62_12
# %bb.1:
	movq	%rsi, %r14
	jmp	.LBB62_5
	.p2align	4, 0x90
.LBB62_8:                               #   in Loop: Header=BB62_5 Depth=1
	xorl	%r15d, %r15d
	testq	%r15, %r15
	jle	.LBB62_9
.LBB62_2:                               #   in Loop: Header=BB62_5 Depth=1
	cmpq	%r15, %r14
	cmovlq	%r14, %r15
	movq	%rdi, %rdx
	movq	%r15, %r8
	callq	memcpy
	movq	88(%rbx), %rax
	subl	%r15d, (%rax)
	addq	%r15, %rdi
	subq	%r15, %r14
	movq	64(%rbx), %rax
	movslq	%r15d, %rcx
	addq	%rcx, (%rax)
.LBB62_3:                               #   in Loop: Header=BB62_5 Depth=1
	movb	$1, %al
	testb	%al, %al
	je	.LBB62_21
.LBB62_5:                               # =>This Inner Loop Header: Depth=1
	testq	%r14, %r14
	jle	.LBB62_21
# %bb.6:                                #   in Loop: Header=BB62_5 Depth=1
	movq	64(%rbx), %rax
	movq	(%rax), %rcx
	testq	%rcx, %rcx
	je	.LBB62_8
# %bb.7:                                #   in Loop: Header=BB62_5 Depth=1
	movq	88(%rbx), %rax
	movslq	(%rax), %r15
	testq	%r15, %r15
	jg	.LBB62_2
.LBB62_9:                               #   in Loop: Header=BB62_5 Depth=1
	movzbl	(%rdi), %edx
	movq	(%rbx), %rax
	movq	%rbx, %rcx
	callq	*24(%rax)
	cmpl	$-1, %eax
	je	.LBB62_11
# %bb.10:                               #   in Loop: Header=BB62_5 Depth=1
	incq	%rdi
	decq	%r14
	jmp	.LBB62_3
.LBB62_11:                              #   in Loop: Header=BB62_5 Depth=1
	xorl	%eax, %eax
	testb	%al, %al
	jne	.LBB62_5
	jmp	.LBB62_21
.LBB62_12:
	movq	64(%rbx), %rax
	movq	(%rax), %rcx
	testq	%rcx, %rcx
	je	.LBB62_16
# %bb.13:
	movq	88(%rbx), %rax
	movslq	(%rax), %r15
	testq	%rsi, %rsi
	jg	.LBB62_14
	jmp	.LBB62_18
.LBB62_16:
	xorl	%r15d, %r15d
	testq	%rsi, %rsi
	jle	.LBB62_18
.LBB62_14:
	testq	%r15, %r15
	jle	.LBB62_18
# %bb.15:
	cmpq	%rsi, %r15
	cmovgeq	%rsi, %r15
	movq	%rdi, %rdx
	movq	%r15, %r8
	callq	memcpy
	addq	%r15, %rdi
	movq	%rsi, %r14
	subq	%r15, %r14
	movq	88(%rbx), %rax
	subl	%r15d, (%rax)
	movq	64(%rbx), %rax
	movslq	%r15d, %rcx
	addq	%rcx, (%rax)
	testq	%r14, %r14
	jg	.LBB62_19
	jmp	.LBB62_21
.LBB62_18:
	movq	%rsi, %r14
	testq	%r14, %r14
	jle	.LBB62_21
.LBB62_19:
	movq	128(%rbx), %r9
	testq	%r9, %r9
	je	.LBB62_21
# %bb.20:
	movl	$1, %edx
	movq	%rdi, %rcx
	movq	%r14, %r8
	callq	fwrite
	subq	%rax, %r14
.LBB62_21:
	subq	%r14, %rsi
	movq	%rsi, %rax
	addq	$32, %rsp
	popq	%rbx
	popq	%rdi
	popq	%rsi
	popq	%r14
	popq	%r15
	retq
	.seh_endproc
                                        # -- End function
	.def	"?seekoff@?$basic_filebuf@DU?$char_traits@D@std@@@std@@MEAA?AV?$fpos@U_Mbstatet@@@2@_JHH@Z";
	.scl	2;
	.type	32;
	.endef
	.section	.text,"xr",discard,"?seekoff@?$basic_filebuf@DU?$char_traits@D@std@@@std@@MEAA?AV?$fpos@U_Mbstatet@@@2@_JHH@Z"
	.globl	"?seekoff@?$basic_filebuf@DU?$char_traits@D@std@@@std@@MEAA?AV?$fpos@U_Mbstatet@@@2@_JHH@Z" # -- Begin function ?seekoff@?$basic_filebuf@DU?$char_traits@D@std@@@std@@MEAA?AV?$fpos@U_Mbstatet@@@2@_JHH@Z
	.p2align	4, 0x90
"?seekoff@?$basic_filebuf@DU?$char_traits@D@std@@@std@@MEAA?AV?$fpos@U_Mbstatet@@@2@_JHH@Z": # @"?seekoff@?$basic_filebuf@DU?$char_traits@D@std@@@std@@MEAA?AV?$fpos@U_Mbstatet@@@2@_JHH@Z"
.seh_proc "?seekoff@?$basic_filebuf@DU?$char_traits@D@std@@@std@@MEAA?AV?$fpos@U_Mbstatet@@@2@_JHH@Z"
# %bb.0:
	pushq	%r15
	.seh_pushreg %r15
	pushq	%r14
	.seh_pushreg %r14
	pushq	%r13
	.seh_pushreg %r13
	pushq	%r12
	.seh_pushreg %r12
	pushq	%rsi
	.seh_pushreg %rsi
	pushq	%rdi
	.seh_pushreg %rdi
	pushq	%rbp
	.seh_pushreg %rbp
	pushq	%rbx
	.seh_pushreg %rbx
	subq	$40, %rsp
	.seh_stackalloc 40
	.seh_endprologue
	movq	56(%rcx), %rax
	leaq	112(%rcx), %r15
	cmpq	%r15, (%rax)
	sete	%bpl
	cmpl	$1, %r9d
	sete	%r12b
	cmpq	$0, 104(%rcx)
	movq	%rdx, %rdi
	sete	%r13b
	cmpq	$0, 128(%rcx)
	je	.LBB63_6
# %bb.1:
	movl	%r9d, %ebx
	movq	%r8, %r14
	movq	%rcx, %rsi
	callq	"?_Endwrite@?$basic_filebuf@DU?$char_traits@D@std@@@std@@IEAA_NXZ"
	testb	%al, %al
	je	.LBB63_6
# %bb.2:
	andb	%r13b, %r12b
	andb	%bpl, %r12b
	movzbl	%r12b, %eax
	subq	%rax, %r14
	cmpl	$1, %ebx
	jne	.LBB63_4
# %bb.3:
	testq	%r14, %r14
	je	.LBB63_5
.LBB63_4:
	movq	128(%rsi), %rcx
	movq	%r14, %rdx
	movl	%ebx, %r8d
	callq	_fseeki64
	testl	%eax, %eax
	jne	.LBB63_6
.LBB63_5:
	movq	128(%rsi), %rcx
	leaq	32(%rsp), %rdx
	callq	fgetpos
	testl	%eax, %eax
	je	.LBB63_8
.LBB63_6:
	movq	$-1, (%rdi)
	xorps	%xmm0, %xmm0
	movups	%xmm0, 8(%rdi)
.LBB63_7:
	movq	%rdi, %rax
	addq	$40, %rsp
	popq	%rbx
	popq	%rbp
	popq	%rdi
	popq	%rsi
	popq	%r12
	popq	%r13
	popq	%r14
	popq	%r15
	retq
.LBB63_8:
	movq	24(%rsi), %rax
	cmpq	%r15, (%rax)
	jne	.LBB63_10
# %bb.9:
	movl	144(%rsi), %ecx
	movq	136(%rsi), %rdx
	movq	%rdx, (%rax)
	movq	56(%rsi), %rax
	movq	%rdx, (%rax)
	subl	%edx, %ecx
	movq	80(%rsi), %rax
	movl	%ecx, (%rax)
.LBB63_10:
	movq	32(%rsp), %rax
	movq	116(%rsi), %rcx
	movq	%rax, (%rdi)
	movq	$0, 8(%rdi)
	movq	%rcx, 16(%rdi)
	jmp	.LBB63_7
	.seh_endproc
                                        # -- End function
	.def	"?seekpos@?$basic_filebuf@DU?$char_traits@D@std@@@std@@MEAA?AV?$fpos@U_Mbstatet@@@2@V32@H@Z";
	.scl	2;
	.type	32;
	.endef
	.section	.text,"xr",discard,"?seekpos@?$basic_filebuf@DU?$char_traits@D@std@@@std@@MEAA?AV?$fpos@U_Mbstatet@@@2@V32@H@Z"
	.globl	"?seekpos@?$basic_filebuf@DU?$char_traits@D@std@@@std@@MEAA?AV?$fpos@U_Mbstatet@@@2@V32@H@Z" # -- Begin function ?seekpos@?$basic_filebuf@DU?$char_traits@D@std@@@std@@MEAA?AV?$fpos@U_Mbstatet@@@2@V32@H@Z
	.p2align	4, 0x90
"?seekpos@?$basic_filebuf@DU?$char_traits@D@std@@@std@@MEAA?AV?$fpos@U_Mbstatet@@@2@V32@H@Z": # @"?seekpos@?$basic_filebuf@DU?$char_traits@D@std@@@std@@MEAA?AV?$fpos@U_Mbstatet@@@2@V32@H@Z"
.seh_proc "?seekpos@?$basic_filebuf@DU?$char_traits@D@std@@@std@@MEAA?AV?$fpos@U_Mbstatet@@@2@V32@H@Z"
# %bb.0:
	pushq	%rsi
	.seh_pushreg %rsi
	pushq	%rdi
	.seh_pushreg %rdi
	pushq	%rbx
	.seh_pushreg %rbx
	subq	$48, %rsp
	.seh_stackalloc 48
	.seh_endprologue
	movq	%rdx, %rsi
	movq	8(%r8), %rax
	addq	(%r8), %rax
	movq	%rax, 40(%rsp)
	cmpq	$0, 128(%rcx)
	je	.LBB64_3
# %bb.1:
	movq	%r8, %rbx
	movq	%rcx, %rdi
	callq	"?_Endwrite@?$basic_filebuf@DU?$char_traits@D@std@@@std@@IEAA_NXZ"
	testb	%al, %al
	je	.LBB64_3
# %bb.2:
	movq	128(%rdi), %rcx
	leaq	40(%rsp), %rdx
	callq	fsetpos
	testl	%eax, %eax
	je	.LBB64_4
.LBB64_3:
	movq	$-1, (%rsi)
	xorps	%xmm0, %xmm0
	movups	%xmm0, 8(%rsi)
.LBB64_7:
	movq	%rsi, %rax
	addq	$48, %rsp
	popq	%rbx
	popq	%rdi
	popq	%rsi
	retq
.LBB64_4:
	movq	16(%rbx), %rax
	movq	%rax, 116(%rdi)
	movq	24(%rdi), %rax
	leaq	112(%rdi), %rcx
	cmpq	%rcx, (%rax)
	jne	.LBB64_6
# %bb.5:
	movl	144(%rdi), %ecx
	movq	136(%rdi), %rdx
	movq	%rdx, (%rax)
	movq	56(%rdi), %rax
	movq	%rdx, (%rax)
	subl	%edx, %ecx
	movq	80(%rdi), %rax
	movl	%ecx, (%rax)
.LBB64_6:
	movq	40(%rsp), %rax
	movq	116(%rdi), %rcx
	movq	%rax, (%rsi)
	movq	$0, 8(%rsi)
	movq	%rcx, 16(%rsi)
	jmp	.LBB64_7
	.seh_endproc
                                        # -- End function
	.def	"?setbuf@?$basic_filebuf@DU?$char_traits@D@std@@@std@@MEAAPEAV?$basic_streambuf@DU?$char_traits@D@std@@@2@PEAD_J@Z";
	.scl	2;
	.type	32;
	.endef
	.section	.text,"xr",discard,"?setbuf@?$basic_filebuf@DU?$char_traits@D@std@@@std@@MEAAPEAV?$basic_streambuf@DU?$char_traits@D@std@@@2@PEAD_J@Z"
	.globl	"?setbuf@?$basic_filebuf@DU?$char_traits@D@std@@@std@@MEAAPEAV?$basic_streambuf@DU?$char_traits@D@std@@@2@PEAD_J@Z" # -- Begin function ?setbuf@?$basic_filebuf@DU?$char_traits@D@std@@@std@@MEAAPEAV?$basic_streambuf@DU?$char_traits@D@std@@@2@PEAD_J@Z
	.p2align	4, 0x90
"?setbuf@?$basic_filebuf@DU?$char_traits@D@std@@@std@@MEAAPEAV?$basic_streambuf@DU?$char_traits@D@std@@@2@PEAD_J@Z": # @"?setbuf@?$basic_filebuf@DU?$char_traits@D@std@@@std@@MEAAPEAV?$basic_streambuf@DU?$char_traits@D@std@@@2@PEAD_J@Z"
.seh_proc "?setbuf@?$basic_filebuf@DU?$char_traits@D@std@@@std@@MEAAPEAV?$basic_streambuf@DU?$char_traits@D@std@@@2@PEAD_J@Z"
# %bb.0:
	pushq	%rsi
	.seh_pushreg %rsi
	pushq	%rdi
	.seh_pushreg %rdi
	subq	$56, %rsp
	.seh_stackalloc 56
	.seh_endprologue
	movq	%rcx, %rsi
	movq	128(%rcx), %rcx
	testq	%rcx, %rcx
	je	.LBB65_3
# %bb.1:
	movq	%r8, %r9
	xorl	%r8d, %r8d
	movq	%rdx, %rax
	orq	%r9, %rax
	sete	%r8b
	shll	$2, %r8d
	callq	setvbuf
	testl	%eax, %eax
	je	.LBB65_4
.LBB65_3:
	xorl	%esi, %esi
	jmp	.LBB65_7
.LBB65_4:
	movq	128(%rsi), %rdi
	movb	$1, 124(%rsi)
	movb	$0, 113(%rsi)
	leaq	8(%rsi), %rax
	movq	%rax, 24(%rsi)
	leaq	16(%rsi), %rax
	movq	%rax, 32(%rsi)
	leaq	40(%rsi), %rax
	movq	%rax, 56(%rsi)
	leaq	48(%rsi), %rax
	movq	%rax, 64(%rsi)
	leaq	72(%rsi), %rax
	movq	%rax, 80(%rsi)
	leaq	76(%rsi), %rax
	movq	%rax, 88(%rsi)
	movq	$0, 72(%rsi)
	xorps	%xmm0, %xmm0
	movups	%xmm0, 8(%rsi)
	movups	%xmm0, 40(%rsi)
	testq	%rdi, %rdi
	je	.LBB65_6
# %bb.5:
	movq	$0, 48(%rsp)
	movq	$0, 40(%rsp)
	movq	$0, 32(%rsp)
	leaq	48(%rsp), %rdx
	leaq	40(%rsp), %r8
	leaq	32(%rsp), %r9
	movq	%rdi, %rcx
	callq	_get_stream_buffer_pointers
	movq	32(%rsp), %rax
	movq	40(%rsp), %rcx
	movq	48(%rsp), %rdx
	movq	%rdx, 24(%rsi)
	movq	%rdx, 32(%rsi)
	movq	%rcx, 56(%rsi)
	movq	%rcx, 64(%rsi)
	movq	%rax, 80(%rsi)
	movq	%rax, 88(%rsi)
.LBB65_6:
	movq	%rdi, 128(%rsi)
	movq	"?_Stinit@?1??_Init@?$basic_filebuf@DU?$char_traits@D@std@@@std@@IEAAXPEAU_iobuf@@W4_Initfl@23@@Z@4U_Mbstatet@@A"(%rip), %rax
	movq	%rax, 116(%rsi)
	movq	$0, 104(%rsi)
.LBB65_7:
	movq	%rsi, %rax
	addq	$56, %rsp
	popq	%rdi
	popq	%rsi
	retq
	.seh_endproc
                                        # -- End function
	.def	"?sync@?$basic_filebuf@DU?$char_traits@D@std@@@std@@MEAAHXZ";
	.scl	2;
	.type	32;
	.endef
	.section	.text,"xr",discard,"?sync@?$basic_filebuf@DU?$char_traits@D@std@@@std@@MEAAHXZ"
	.globl	"?sync@?$basic_filebuf@DU?$char_traits@D@std@@@std@@MEAAHXZ" # -- Begin function ?sync@?$basic_filebuf@DU?$char_traits@D@std@@@std@@MEAAHXZ
	.p2align	4, 0x90
"?sync@?$basic_filebuf@DU?$char_traits@D@std@@@std@@MEAAHXZ": # @"?sync@?$basic_filebuf@DU?$char_traits@D@std@@@std@@MEAAHXZ"
.seh_proc "?sync@?$basic_filebuf@DU?$char_traits@D@std@@@std@@MEAAHXZ"
# %bb.0:
	pushq	%rsi
	.seh_pushreg %rsi
	pushq	%rdi
	.seh_pushreg %rdi
	subq	$40, %rsp
	.seh_stackalloc 40
	.seh_endprologue
	xorl	%esi, %esi
	cmpq	$0, 128(%rcx)
	je	.LBB66_3
# %bb.1:
	movq	%rcx, %rdi
	movq	(%rcx), %rax
	movl	$-1, %edx
	callq	*24(%rax)
	cmpl	$-1, %eax
	je	.LBB66_3
# %bb.2:
	movq	128(%rdi), %rcx
	callq	fflush
	movl	%eax, %esi
	sarl	$31, %esi
.LBB66_3:
	movl	%esi, %eax
	addq	$40, %rsp
	popq	%rdi
	popq	%rsi
	retq
	.seh_endproc
                                        # -- End function
	.def	"?imbue@?$basic_filebuf@DU?$char_traits@D@std@@@std@@MEAAXAEBVlocale@2@@Z";
	.scl	2;
	.type	32;
	.endef
	.section	.text,"xr",discard,"?imbue@?$basic_filebuf@DU?$char_traits@D@std@@@std@@MEAAXAEBVlocale@2@@Z"
	.globl	"?imbue@?$basic_filebuf@DU?$char_traits@D@std@@@std@@MEAAXAEBVlocale@2@@Z" # -- Begin function ?imbue@?$basic_filebuf@DU?$char_traits@D@std@@@std@@MEAAXAEBVlocale@2@@Z
	.p2align	4, 0x90
"?imbue@?$basic_filebuf@DU?$char_traits@D@std@@@std@@MEAAXAEBVlocale@2@@Z": # @"?imbue@?$basic_filebuf@DU?$char_traits@D@std@@@std@@MEAAXAEBVlocale@2@@Z"
.seh_proc "?imbue@?$basic_filebuf@DU?$char_traits@D@std@@@std@@MEAAXAEBVlocale@2@@Z"
# %bb.0:
	pushq	%rsi
	.seh_pushreg %rsi
	pushq	%rdi
	.seh_pushreg %rdi
	subq	$40, %rsp
	.seh_stackalloc 40
	.seh_endprologue
	movq	%rcx, %rsi
	movq	%rdx, %rcx
	callq	"??$use_facet@V?$codecvt@DDU_Mbstatet@@@std@@@std@@YAAEBV?$codecvt@DDU_Mbstatet@@@0@AEBVlocale@0@@Z"
	movq	%rax, %rdi
	movq	(%rax), %rax
	movq	%rdi, %rcx
	callq	*24(%rax)
	testb	%al, %al
	je	.LBB67_3
# %bb.1:
	movq	$0, 104(%rsi)
	jmp	.LBB67_2
.LBB67_3:
	movq	%rdi, 104(%rsi)
	leaq	8(%rsi), %rax
	movq	%rax, 24(%rsi)
	leaq	16(%rsi), %rax
	movq	%rax, 32(%rsi)
	leaq	40(%rsi), %rax
	movq	%rax, 56(%rsi)
	leaq	48(%rsi), %rax
	movq	%rax, 64(%rsi)
	leaq	72(%rsi), %rax
	movq	%rax, 80(%rsi)
	leaq	76(%rsi), %rax
	movq	%rax, 88(%rsi)
	movq	$0, 72(%rsi)
	xorps	%xmm0, %xmm0
	movups	%xmm0, 8(%rsi)
	movups	%xmm0, 40(%rsi)
.LBB67_2:
	addq	$40, %rsp
	popq	%rdi
	popq	%rsi
	retq
	.seh_endproc
                                        # -- End function
	.def	"?_Endwrite@?$basic_filebuf@DU?$char_traits@D@std@@@std@@IEAA_NXZ";
	.scl	2;
	.type	32;
	.endef
	.section	.text,"xr",discard,"?_Endwrite@?$basic_filebuf@DU?$char_traits@D@std@@@std@@IEAA_NXZ"
	.globl	"?_Endwrite@?$basic_filebuf@DU?$char_traits@D@std@@@std@@IEAA_NXZ" # -- Begin function ?_Endwrite@?$basic_filebuf@DU?$char_traits@D@std@@@std@@IEAA_NXZ
	.p2align	4, 0x90
"?_Endwrite@?$basic_filebuf@DU?$char_traits@D@std@@@std@@IEAA_NXZ": # @"?_Endwrite@?$basic_filebuf@DU?$char_traits@D@std@@@std@@IEAA_NXZ"
.seh_proc "?_Endwrite@?$basic_filebuf@DU?$char_traits@D@std@@@std@@IEAA_NXZ"
# %bb.0:
	pushq	%rsi
	.seh_pushreg %rsi
	pushq	%rdi
	.seh_pushreg %rdi
	pushq	%rbx
	.seh_pushreg %rbx
	subq	$80, %rsp
	.seh_stackalloc 80
	.seh_endprologue
	movb	$1, %al
	cmpq	$0, 104(%rcx)
	je	.LBB68_14
# %bb.1:
	movq	%rcx, %rsi
	cmpb	$0, 113(%rcx)
	je	.LBB68_14
# %bb.2:
	movq	(%rsi), %rax
	movq	%rsi, %rcx
	movl	$-1, %edx
	callq	*24(%rax)
	cmpl	$-1, %eax
	je	.LBB68_13
# %bb.3:
	movq	104(%rsi), %rcx
	leaq	80(%rsp), %r9
	leaq	116(%rsi), %rdx
	movq	(%rcx), %rax
	leaq	40(%rsp), %r8
	movq	%r8, 32(%rsp)
	leaq	48(%rsp), %rdi
	movq	%rdi, %r8
	callq	*64(%rax)
	cmpl	$3, %eax
	je	.LBB68_11
# %bb.4:
	cmpl	$1, %eax
	je	.LBB68_7
# %bb.5:
	testl	%eax, %eax
	jne	.LBB68_13
# %bb.6:
	movb	$0, 113(%rsi)
.LBB68_7:
	movq	40(%rsp), %rbx
	subq	%rdi, %rbx
	je	.LBB68_9
# %bb.8:
	movq	128(%rsi), %r9
	movl	$1, %edx
	movq	%rdi, %rcx
	movq	%rbx, %r8
	callq	fwrite
	cmpq	%rax, %rbx
	jne	.LBB68_13
.LBB68_9:
	cmpb	$0, 113(%rsi)
	sete	%al
	jmp	.LBB68_14
.LBB68_13:
	xorl	%eax, %eax
.LBB68_14:
                                        # kill: def $al killed $al killed $eax
	addq	$80, %rsp
	popq	%rbx
	popq	%rdi
	popq	%rsi
	retq
.LBB68_11:
	movb	$0, 113(%rsi)
	movb	$1, %al
	jmp	.LBB68_14
	.seh_endproc
                                        # -- End function
	.def	"??_G?$basic_streambuf@DU?$char_traits@D@std@@@std@@UEAAPEAXI@Z";
	.scl	2;
	.type	32;
	.endef
	.section	.text,"xr",discard,"??_G?$basic_streambuf@DU?$char_traits@D@std@@@std@@UEAAPEAXI@Z"
	.globl	"??_G?$basic_streambuf@DU?$char_traits@D@std@@@std@@UEAAPEAXI@Z" # -- Begin function ??_G?$basic_streambuf@DU?$char_traits@D@std@@@std@@UEAAPEAXI@Z
	.p2align	4, 0x90
"??_G?$basic_streambuf@DU?$char_traits@D@std@@@std@@UEAAPEAXI@Z": # @"??_G?$basic_streambuf@DU?$char_traits@D@std@@@std@@UEAAPEAXI@Z"
.seh_proc "??_G?$basic_streambuf@DU?$char_traits@D@std@@@std@@UEAAPEAXI@Z"
# %bb.0:
	pushq	%rsi
	.seh_pushreg %rsi
	pushq	%rdi
	.seh_pushreg %rdi
	pushq	%rbx
	.seh_pushreg %rbx
	subq	$32, %rsp
	.seh_stackalloc 32
	.seh_endprologue
	movl	%edx, %edi
	movq	%rcx, %rsi
	leaq	"??_7?$basic_streambuf@DU?$char_traits@D@std@@@std@@6B@"(%rip), %rax
	movq	%rax, (%rcx)
	movq	96(%rcx), %rbx
	testq	%rbx, %rbx
	je	.LBB69_5
# %bb.1:
	movq	8(%rbx), %rcx
	testq	%rcx, %rcx
	je	.LBB69_4
# %bb.2:
	movq	(%rcx), %rax
	callq	*16(%rax)
	testq	%rax, %rax
	je	.LBB69_4
# %bb.3:
	movq	(%rax), %r8
	movq	%rax, %rcx
	movl	$1, %edx
	callq	*(%r8)
.LBB69_4:
	movq	%rbx, %rcx
	callq	"??3@YAXPEAX@Z"
.LBB69_5:
	testl	%edi, %edi
	je	.LBB69_7
# %bb.6:
	movq	%rsi, %rcx
	callq	"??3@YAXPEAX@Z"
.LBB69_7:
	movq	%rsi, %rax
	addq	$32, %rsp
	popq	%rbx
	popq	%rdi
	popq	%rsi
	retq
	.seh_endproc
                                        # -- End function
	.def	"?_Lock@?$basic_streambuf@DU?$char_traits@D@std@@@std@@UEAAXXZ";
	.scl	2;
	.type	32;
	.endef
	.section	.text,"xr",discard,"?_Lock@?$basic_streambuf@DU?$char_traits@D@std@@@std@@UEAAXXZ"
	.globl	"?_Lock@?$basic_streambuf@DU?$char_traits@D@std@@@std@@UEAAXXZ" # -- Begin function ?_Lock@?$basic_streambuf@DU?$char_traits@D@std@@@std@@UEAAXXZ
	.p2align	4, 0x90
"?_Lock@?$basic_streambuf@DU?$char_traits@D@std@@@std@@UEAAXXZ": # @"?_Lock@?$basic_streambuf@DU?$char_traits@D@std@@@std@@UEAAXXZ"
# %bb.0:
	retq
                                        # -- End function
	.def	"?_Unlock@?$basic_streambuf@DU?$char_traits@D@std@@@std@@UEAAXXZ";
	.scl	2;
	.type	32;
	.endef
	.section	.text,"xr",discard,"?_Unlock@?$basic_streambuf@DU?$char_traits@D@std@@@std@@UEAAXXZ"
	.globl	"?_Unlock@?$basic_streambuf@DU?$char_traits@D@std@@@std@@UEAAXXZ" # -- Begin function ?_Unlock@?$basic_streambuf@DU?$char_traits@D@std@@@std@@UEAAXXZ
	.p2align	4, 0x90
"?_Unlock@?$basic_streambuf@DU?$char_traits@D@std@@@std@@UEAAXXZ": # @"?_Unlock@?$basic_streambuf@DU?$char_traits@D@std@@@std@@UEAAXXZ"
# %bb.0:
	retq
                                        # -- End function
	.def	"?overflow@?$basic_streambuf@DU?$char_traits@D@std@@@std@@MEAAHH@Z";
	.scl	2;
	.type	32;
	.endef
	.section	.text,"xr",discard,"?overflow@?$basic_streambuf@DU?$char_traits@D@std@@@std@@MEAAHH@Z"
	.globl	"?overflow@?$basic_streambuf@DU?$char_traits@D@std@@@std@@MEAAHH@Z" # -- Begin function ?overflow@?$basic_streambuf@DU?$char_traits@D@std@@@std@@MEAAHH@Z
	.p2align	4, 0x90
"?overflow@?$basic_streambuf@DU?$char_traits@D@std@@@std@@MEAAHH@Z": # @"?overflow@?$basic_streambuf@DU?$char_traits@D@std@@@std@@MEAAHH@Z"
# %bb.0:
	movl	$-1, %eax
	retq
                                        # -- End function
	.def	"?pbackfail@?$basic_streambuf@DU?$char_traits@D@std@@@std@@MEAAHH@Z";
	.scl	2;
	.type	32;
	.endef
	.section	.text,"xr",discard,"?pbackfail@?$basic_streambuf@DU?$char_traits@D@std@@@std@@MEAAHH@Z"
	.globl	"?pbackfail@?$basic_streambuf@DU?$char_traits@D@std@@@std@@MEAAHH@Z" # -- Begin function ?pbackfail@?$basic_streambuf@DU?$char_traits@D@std@@@std@@MEAAHH@Z
	.p2align	4, 0x90
"?pbackfail@?$basic_streambuf@DU?$char_traits@D@std@@@std@@MEAAHH@Z": # @"?pbackfail@?$basic_streambuf@DU?$char_traits@D@std@@@std@@MEAAHH@Z"
# %bb.0:
	movl	$-1, %eax
	retq
                                        # -- End function
	.def	"?underflow@?$basic_streambuf@DU?$char_traits@D@std@@@std@@MEAAHXZ";
	.scl	2;
	.type	32;
	.endef
	.section	.text,"xr",discard,"?underflow@?$basic_streambuf@DU?$char_traits@D@std@@@std@@MEAAHXZ"
	.globl	"?underflow@?$basic_streambuf@DU?$char_traits@D@std@@@std@@MEAAHXZ" # -- Begin function ?underflow@?$basic_streambuf@DU?$char_traits@D@std@@@std@@MEAAHXZ
	.p2align	4, 0x90
"?underflow@?$basic_streambuf@DU?$char_traits@D@std@@@std@@MEAAHXZ": # @"?underflow@?$basic_streambuf@DU?$char_traits@D@std@@@std@@MEAAHXZ"
# %bb.0:
	movl	$-1, %eax
	retq
                                        # -- End function
	.def	"?uflow@?$basic_streambuf@DU?$char_traits@D@std@@@std@@MEAAHXZ";
	.scl	2;
	.type	32;
	.endef
	.section	.text,"xr",discard,"?uflow@?$basic_streambuf@DU?$char_traits@D@std@@@std@@MEAAHXZ"
	.globl	"?uflow@?$basic_streambuf@DU?$char_traits@D@std@@@std@@MEAAHXZ" # -- Begin function ?uflow@?$basic_streambuf@DU?$char_traits@D@std@@@std@@MEAAHXZ
	.p2align	4, 0x90
"?uflow@?$basic_streambuf@DU?$char_traits@D@std@@@std@@MEAAHXZ": # @"?uflow@?$basic_streambuf@DU?$char_traits@D@std@@@std@@MEAAHXZ"
.seh_proc "?uflow@?$basic_streambuf@DU?$char_traits@D@std@@@std@@MEAAHXZ"
# %bb.0:
	pushq	%rsi
	.seh_pushreg %rsi
	subq	$32, %rsp
	.seh_stackalloc 32
	.seh_endprologue
	movq	%rcx, %rsi
	movq	(%rcx), %rax
	callq	*48(%rax)
	cmpl	$-1, %eax
	je	.LBB75_1
# %bb.2:
	movq	80(%rsi), %rax
	decl	(%rax)
	movq	56(%rsi), %rax
	movq	(%rax), %rcx
	leaq	1(%rcx), %rdx
	movq	%rdx, (%rax)
	movzbl	(%rcx), %eax
	jmp	.LBB75_3
.LBB75_1:
	movl	$-1, %eax
.LBB75_3:
	addq	$32, %rsp
	popq	%rsi
	retq
	.seh_endproc
                                        # -- End function
	.def	"?xsgetn@?$basic_streambuf@DU?$char_traits@D@std@@@std@@MEAA_JPEAD_J@Z";
	.scl	2;
	.type	32;
	.endef
	.section	.text,"xr",discard,"?xsgetn@?$basic_streambuf@DU?$char_traits@D@std@@@std@@MEAA_JPEAD_J@Z"
	.globl	"?xsgetn@?$basic_streambuf@DU?$char_traits@D@std@@@std@@MEAA_JPEAD_J@Z" # -- Begin function ?xsgetn@?$basic_streambuf@DU?$char_traits@D@std@@@std@@MEAA_JPEAD_J@Z
	.p2align	4, 0x90
"?xsgetn@?$basic_streambuf@DU?$char_traits@D@std@@@std@@MEAA_JPEAD_J@Z": # @"?xsgetn@?$basic_streambuf@DU?$char_traits@D@std@@@std@@MEAA_JPEAD_J@Z"
.seh_proc "?xsgetn@?$basic_streambuf@DU?$char_traits@D@std@@@std@@MEAA_JPEAD_J@Z"
# %bb.0:
	pushq	%r15
	.seh_pushreg %r15
	pushq	%r14
	.seh_pushreg %r14
	pushq	%rsi
	.seh_pushreg %rsi
	pushq	%rdi
	.seh_pushreg %rdi
	pushq	%rbx
	.seh_pushreg %rbx
	subq	$32, %rsp
	.seh_stackalloc 32
	.seh_endprologue
	movq	%r8, %rsi
	movq	%rdx, %rdi
	movq	%rcx, %rbx
	movq	%r8, %r15
	jmp	.LBB76_1
	.p2align	4, 0x90
.LBB76_6:                               #   in Loop: Header=BB76_1 Depth=1
	cmpq	%r14, %r15
	cmovlq	%r15, %r14
	movq	%rdi, %rcx
	movq	%r14, %r8
	callq	memcpy
	addq	%r14, %rdi
	subq	%r14, %r15
	movq	80(%rbx), %rax
	subl	%r14d, (%rax)
	movq	56(%rbx), %rax
	movslq	%r14d, %rcx
	addq	%rcx, (%rax)
.LBB76_11:                              #   in Loop: Header=BB76_1 Depth=1
	xorl	%ecx, %ecx
.LBB76_12:                              #   in Loop: Header=BB76_1 Depth=1
	testl	%ecx, %ecx
	jne	.LBB76_13
.LBB76_1:                               # =>This Inner Loop Header: Depth=1
	testq	%r15, %r15
	jle	.LBB76_13
# %bb.2:                                #   in Loop: Header=BB76_1 Depth=1
	movq	56(%rbx), %rax
	movq	(%rax), %rdx
	testq	%rdx, %rdx
	je	.LBB76_3
# %bb.4:                                #   in Loop: Header=BB76_1 Depth=1
	movq	80(%rbx), %rax
	movslq	(%rax), %r14
	testq	%r14, %r14
	jg	.LBB76_6
	jmp	.LBB76_7
	.p2align	4, 0x90
.LBB76_3:                               #   in Loop: Header=BB76_1 Depth=1
	xorl	%r14d, %r14d
	testq	%r14, %r14
	jg	.LBB76_6
.LBB76_7:                               #   in Loop: Header=BB76_1 Depth=1
	movq	(%rbx), %rax
	movq	%rbx, %rcx
	callq	*56(%rax)
	cmpl	$-1, %eax
	je	.LBB76_8
# %bb.9:                                #   in Loop: Header=BB76_1 Depth=1
	movb	%al, (%rdi)
	incq	%rdi
	decq	%r15
	xorl	%ecx, %ecx
	cmpl	$-1, %eax
	jne	.LBB76_11
	jmp	.LBB76_12
.LBB76_8:                               #   in Loop: Header=BB76_1 Depth=1
	movl	$3, %ecx
	cmpl	$-1, %eax
	jne	.LBB76_11
	jmp	.LBB76_12
.LBB76_13:
	subq	%r15, %rsi
	movq	%rsi, %rax
	addq	$32, %rsp
	popq	%rbx
	popq	%rdi
	popq	%rsi
	popq	%r14
	popq	%r15
	retq
	.seh_endproc
                                        # -- End function
	.def	"?xsputn@?$basic_streambuf@DU?$char_traits@D@std@@@std@@MEAA_JPEBD_J@Z";
	.scl	2;
	.type	32;
	.endef
	.section	.text,"xr",discard,"?xsputn@?$basic_streambuf@DU?$char_traits@D@std@@@std@@MEAA_JPEBD_J@Z"
	.globl	"?xsputn@?$basic_streambuf@DU?$char_traits@D@std@@@std@@MEAA_JPEBD_J@Z" # -- Begin function ?xsputn@?$basic_streambuf@DU?$char_traits@D@std@@@std@@MEAA_JPEBD_J@Z
	.p2align	4, 0x90
"?xsputn@?$basic_streambuf@DU?$char_traits@D@std@@@std@@MEAA_JPEBD_J@Z": # @"?xsputn@?$basic_streambuf@DU?$char_traits@D@std@@@std@@MEAA_JPEBD_J@Z"
.seh_proc "?xsputn@?$basic_streambuf@DU?$char_traits@D@std@@@std@@MEAA_JPEBD_J@Z"
# %bb.0:
	pushq	%r15
	.seh_pushreg %r15
	pushq	%r14
	.seh_pushreg %r14
	pushq	%rsi
	.seh_pushreg %rsi
	pushq	%rdi
	.seh_pushreg %rdi
	pushq	%rbx
	.seh_pushreg %rbx
	subq	$32, %rsp
	.seh_stackalloc 32
	.seh_endprologue
	movq	%r8, %rsi
	movq	%rdx, %rdi
	movq	%rcx, %rbx
	movq	%r8, %r15
	jmp	.LBB77_1
	.p2align	4, 0x90
.LBB77_6:                               #   in Loop: Header=BB77_1 Depth=1
	cmpq	%r14, %r15
	cmovlq	%r15, %r14
	movq	%rdi, %rdx
	movq	%r14, %r8
	callq	memcpy
	movq	88(%rbx), %rax
	subl	%r14d, (%rax)
	addq	%r14, %rdi
	subq	%r14, %r15
	movq	64(%rbx), %rax
	movslq	%r14d, %rcx
	addq	%rcx, (%rax)
.LBB77_10:                              #   in Loop: Header=BB77_1 Depth=1
	movb	$1, %al
	testb	%al, %al
	je	.LBB77_12
.LBB77_1:                               # =>This Inner Loop Header: Depth=1
	testq	%r15, %r15
	jle	.LBB77_12
# %bb.2:                                #   in Loop: Header=BB77_1 Depth=1
	movq	64(%rbx), %rax
	movq	(%rax), %rcx
	testq	%rcx, %rcx
	je	.LBB77_3
# %bb.4:                                #   in Loop: Header=BB77_1 Depth=1
	movq	88(%rbx), %rax
	movslq	(%rax), %r14
	testq	%r14, %r14
	jg	.LBB77_6
	jmp	.LBB77_7
	.p2align	4, 0x90
.LBB77_3:                               #   in Loop: Header=BB77_1 Depth=1
	xorl	%r14d, %r14d
	testq	%r14, %r14
	jg	.LBB77_6
.LBB77_7:                               #   in Loop: Header=BB77_1 Depth=1
	movzbl	(%rdi), %edx
